0160:26E290   push ebx 53
0160:26E291   push esi 56
0160:26E292   push edi 57
0160:26E293   push ebp 55
0160:26E294   mov  ebp,esp 89E5
0160:26E296   sub  esp,00000040 81EC40000000
0160:26E29C   mov  byte [ebp-0004],00 C645FC00
0160:26E2A0   cmp  byte [002B4798],00 803D98472B0000
0160:26E2A7   jz   0026E7F4 ($+547) 0F8447050000
0160:26E2AD   mov  ax,[002B47B4] 66A1B4472B00
0160:26E2B3   mov  [002B47B6],ax 66A3B6472B00
0160:26E2B9   cmp  dword [002B47B6],0000 66833DB6472B0000
0160:26E2C1   jne  0026E2FD ($+3a) 753A
0160:26E2C3   cmp  byte [002B47FC],00 803DFC472B0000
0160:26E2CA   jne  0026E2D5 ($+9) 7509
0160:26E2CC   cmp  byte [002B47B8],00 803DB8472B0000
0160:26E2D3   jne  0026E2D7 ($+2) 7502
0160:26E2D5   jmp  short 0026E2DC ($+5) EB05
0160:26E2D7   call 002729C0 ($+46e4) E8E4460000
0160:26E2DC   mov  byte [002B4798],00 C60598472B0000
0160:26E2E3   mov  byte [002B4799],00 C60599472B0000
0160:26E2EA   mov  eax,002A2FFC B8FC2F2A00
0160:26E2EF   push eax 50
0160:26E2F0   call 0026D2AA ($-104b) E8B5EFFFFF
0160:26E2F5   add  esp,0004 83C404
0160:26E2F8   jmp  0026E7F4 ($+4f7) E9F7040000
0160:26E2FD   cmp  byte [002B47B8],00 803DB8472B0000
0160:26E304   jne  0026E333 ($+2d) 752D
0160:26E306   call 00271F60 ($+3c55) E8553C0000
0160:26E30B   mov  eax,00264CD0 B8D04C2600
0160:26E310   push eax 50
0160:26E311   call 0027E3F0 ($+100da) E8DA000100
0160:26E316   add  esp,0004 83C404
0160:26E319   mov  eax,00264E80 B8804E2600
0160:26E31E   push eax 50
0160:26E31F   call 0027E420 ($+100fc) E8FC000100
0160:26E324   add  esp,0004 83C404
0160:26E327   call 002727D0 ($+44a4) E8A4440000
0160:26E32C   mov  byte [002B47B8],01 C605B8472B0001
0160:26E333   call 00271EE0 ($+3ba8) E8A83B0000
0160:26E338   movsx eax,al 0FBEC0
0160:26E33B   cmp  eax,FFFF 83F8FF
0160:26E33E   jne  0026E381 ($+41) 7541
0160:26E340   mov  byte [002B4798],00 C60598472B0000
0160:26E347   mov  byte [002B4799],00 C60599472B0000
0160:26E34E   cmp  byte [002B47FC],00 803DFC472B0000
0160:26E355   je   0026E360 ($+9) 7409
0160:26E357   cmp  byte [002B47FE],00 803DFE472B0000
0160:26E35E   jne  0026E362 ($+2) 7502
0160:26E360   jmp  short 0026E369 ($+7) EB07
0160:26E362   call 0027AC90 ($+c929) E829C90000
0160:26E367   jmp  short 0026E37C ($+13) EB13
0160:26E369   mov  byte [002B47FC],00 C605FC472B0000
0160:26E370   mov  byte [002B47FD],00 C605FD472B0000
0160:26E377   call 002729C0 ($+4644) E844460000
0160:26E37C   jmp  0026E7F4 ($+473) E973040000
0160:26E381   mov  eax,002A3024 B824302A00
0160:26E386   push eax 50
0160:26E387   call 0027AE33 ($+caa7) E8A7CA0000
0160:26E38C   add  esp,0004 83C404
0160:26E38F   mov  [ebp-0014],eax 8945EC
0160:26E392   cmp  dword [ebp-0014],0000 837DEC00
0160:26E396   jz   0026E43E ($+a2) 0F84A2000000
0160:26E39C   lea  eax,[ebp-0036] 8D45CA
0160:26E39F   push eax 50
0160:26E3A0   lea  eax,[ebp-0038] 8D45C8
0160:26E3A3   push eax 50
0160:26E3A4   lea  eax,[ebp-003A] 8D45C6
0160:26E3A7   push eax 50
0160:26E3A8   lea  eax,[ebp-003C] 8D45C4
0160:26E3AB   push eax 50
0160:26E3AC   lea  eax,[ebp-0024] 8D45DC
0160:26E3AF   push eax 50
0160:26E3B0   mov  eax,002A302C B82C302A00
0160:26E3B5   push eax 50
0160:26E3B6   mov  eax,[ebp-0014] 8B45EC
0160:26E3B9   push eax 50
0160:26E3BA   call 0027F187 ($+10dc8) E8C80D0100
0160:26E3BF   add  esp,001C 83C41C
0160:26E3C2   lea  eax,[ebp-003C] 8D45C4
0160:26E3C5   push eax 50
0160:26E3C6   lea  eax,[ebp-0024] 8D45DC
0160:26E3C9   push eax 50
0160:26E3CA   call 00274330 ($+5f61) E8615F0000
0160:26E3CF   add  esp,0008 83C408
0160:26E3D2   mov  [00351B48],eax A3481B3500
0160:26E3D7   cmp  dword [00351B48],0000 833D481B350000
0160:26E3DE   jne  0026E406 ($+26) 7526
0160:26E3E0   cmp  byte [002B47FC],00 803DFC472B0000
0160:26E3E7   jne  0026E3EE ($+5) 7505
0160:26E3E9   call 002729C0 ($+45d2) E8D2450000
0160:26E3EE   call 00271F20 ($+3b2d) E82D3B0000
0160:26E3F3   mov  byte [002B4798],00 C60598472B0000
0160:26E3FA   mov  byte [002B4799],00 C60599472B0000
0160:26E401   jmp  0026E7F4 ($+3ee) E9EE030000
0160:26E406   lea  eax,[ebp-0024] 8D45DC
0160:26E409   push eax 50
0160:26E40A   mov  eax,002A303C B83C302A00
0160:26E40F   push eax 50
0160:26E410   mov  eax,00351AB0 B8B01A3500
0160:26E415   push eax 50
0160:26E416   call 0026F3D5 ($+fba) E8BA0F0000
0160:26E41B   add  esp,000C 83C40C
0160:26E41E   mov  eax,[ebp-003C] 8B45C4
0160:26E421   mov  [00351B30],ax 66A3301B3500
0160:26E427   push dword [00351B48] FF35481B3500
0160:26E42D   call 00274480 ($+604e) E84E600000
0160:26E432   add  esp,0004 83C404
0160:26E435   mov  byte [ebp-0004],01 C645FC01
0160:26E439   jmp  0026E4E9 ($+ab) E9AB000000
0160:26E43E   mov  eax,002A3040 B840302A00
0160:26E443   push eax 50
0160:26E444   mov  eax,00351A30 B8301A3500
0160:26E449   push eax 50
0160:26E44A   call 00273190 ($+4d41) E8414D0000
0160:26E44F   add  esp,0008 83C408
0160:26E452   test eax,eax 85C0
0160:26E454   je   0026E4B8 ($+62) 7462
0160:26E456   mov  eax,002A3048 B848302A00
0160:26E45B   push eax 50
0160:26E45C   mov  eax,00351AB0 B8B01A3500
0160:26E461   push eax 50
0160:26E462   call 00279F5D ($+baf6) E8F6BA0000
0160:26E467   add  esp,0008 83C408
0160:26E46A   test eax,eax 85C0
0160:26E46C   jne  0026E494 ($+26) 7526
0160:26E46E   cmp  byte [002B47FC],00 803DFC472B0000
0160:26E475   jne  0026E47C ($+5) 7505
0160:26E477   call 002729C0 ($+4544) E844450000
0160:26E47C   call 00271F20 ($+3a9f) E89F3A0000
0160:26E481   mov  byte [002B4798],00 C60598472B0000
0160:26E488   mov  byte [002B4799],00 C60599472B0000
0160:26E48F   jmp  0026E7F4 ($+360) E960030000
0160:26E494   mov  eax,00351B48 B8481B3500
0160:26E499   push eax 50
0160:26E49A   call 002741F0 ($+5d51) E8515D0000
0160:26E49F   add  esp,0004 83C404
0160:26E4A2   test eax,eax 85C0
0160:26E4A4   jne  0026E4B8 ($+12) 7512
0160:26E4A6   push dword [00351B48] FF35481B3500
0160:26E4AC   call 00274480 ($+5fcf) E8CF5F0000
0160:26E4B1   add  esp,0004 83C404
0160:26E4B4   mov  byte [ebp-0004],01 C645FC01
0160:26E4B8   cmp  byte [ebp-0004],00 807DFC00
0160:26E4BC   jne  0026E4E4 ($+26) 7526
0160:26E4BE   cmp  byte [002B47FC],00 803DFC472B0000
0160:26E4C5   jne  0026E4CC ($+5) 7505
0160:26E4C7   call 002729C0 ($+44f4) E8F4440000
0160:26E4CC   call 00271F20 ($+3a4f) E84F3A0000
0160:26E4D1   mov  byte [002B4798],00 C60598472B0000
0160:26E4D8   mov  byte [002B4799],00 C60599472B0000
0160:26E4DF   jmp  0026E7F4 ($+310) E910030000
0160:26E4E4   call 00271F20 ($+3a37) E8373A0000
0160:26E4E9   call 00271F20 ($+3a32) E8323A0000
0160:26E4EE   call 0026E800 ($+30d) E80D030000
0160:26E4F3   cmp  dword [002B47B6],0000 66833DB6472B0000
0160:26E4FB   jne  0026E52C ($+2f) 752F
0160:26E4FD   cmp  byte [002B47FC],00 803DFC472B0000
0160:26E504   jne  0026E50B ($+5) 7505
0160:26E506   call 002729C0 ($+44b5) E8B5440000
0160:26E50B   mov  byte [002B4798],00 C60598472B0000
0160:26E512   mov  byte [002B4799],00 C60599472B0000
0160:26E519   mov  eax,002A3050 B850302A00
0160:26E51E   push eax 50
0160:26E51F   call 0026D2AA ($-127a) E886EDFFFF
0160:26E524   add  esp,0004 83C404
0160:26E527   jmp  0026E7F4 ($+2c8) E9C8020000
0160:26E52C   mov  ax,[002B47B6] 66A1B6472B00
0160:26E532   mov  [ebp-0040],eax 8945C0
0160:26E535   cmp  dword [ebp-0040],0336 66817DC03603
0160:26E53B   jc   0026E573 ($+36) 7236
0160:26E53D   cmp  dword [ebp-0040],0336 66817DC03603
0160:26E543   jbe  0026E5E0 ($+97) 0F8697000000
0160:26E549   cmp  dword [ebp-0040],0656 66817DC05606
0160:26E54F   jc   0026E566 ($+15) 7215
0160:26E551   cmp  dword [ebp-0040],0656 66817DC05606
0160:26E557   jbe  0026E5BA ($+61) 7661
0160:26E559   cmp  dword [ebp-0040],066C 66817DC06C06
0160:26E55F   je   0026E5A4 ($+43) 7443
0160:26E561   jmp  0026E63A ($+d4) E9D4000000
0160:26E566   cmp  dword [ebp-0040],064B 66817DC04B06
0160:26E56C   je   0026E5CD ($+5f) 745F
0160:26E56E   jmp  0026E63A ($+c7) E9C7000000
0160:26E573   cmp  dword [ebp-0040],0320 66817DC02003
0160:26E579   jc   0026E594 ($+19) 7219
0160:26E57B   cmp  dword [ebp-0040],0320 66817DC02003
0160:26E581   jbe  0026E606 ($+7f) 0F867F000000
0160:26E587   cmp  dword [ebp-0040],032B 66817DC02B03
0160:26E58D   je   0026E5F3 ($+64) 7464
0160:26E58F   jmp  0026E63A ($+a6) E9A6000000
0160:26E594   cmp  dword [ebp-0040],0000 66837DC000
0160:26E599   jz   0026E619 ($+7a) 0F847A000000
0160:26E59F   jmp  0026E63A ($+96) E996000000
0160:26E5A4   mov  dword [002B47BC],0000AC44 C705BC472B0044AC0000
0160:26E5AE   mov  byte [002B47AE],01 C605AE472B0001
0160:26E5B5   jmp  0026E63A ($+80) E980000000
0160:26E5BA   mov  dword [002B47BC],00005622 C705BC472B0022560000
0160:26E5C4   mov  byte [002B47AE],01 C605AE472B0001
0160:26E5CB   jmp  short 0026E63A ($+6d) EB6D
0160:26E5CD   mov  dword [002B47BC],00002B11 C705BC472B00112B0000
0160:26E5D7   mov  byte [002B47AE],01 C605AE472B0001
0160:26E5DE   jmp  short 0026E63A ($+5a) EB5A
0160:26E5E0   mov  dword [002B47BC],00005622 C705BC472B0022560000
0160:26E5EA   mov  byte [002B47AE],00 C605AE472B0000
0160:26E5F1   jmp  short 0026E63A ($+47) EB47
0160:26E5F3   mov  dword [002B47BC],00002B11 C705BC472B00112B0000
0160:26E5FD   mov  byte [002B47AE],00 C605AE472B0000
0160:26E604   jmp  short 0026E63A ($+34) EB34
0160:26E606   mov  dword [002B47BC],00002B11 C705BC472B00112B0000
0160:26E610   mov  byte [002B47AE],00 C605AE472B0000
0160:26E617   jmp  short 0026E63A ($+21) EB21
0160:26E619   mov  byte [002B4798],00 C60598472B0000
0160:26E620   mov  byte [002B4799],00 C60599472B0000
0160:26E627   mov  eax,002A3078 B878302A00
0160:26E62C   push eax 50
0160:26E62D   call 0026D2AA ($-1388) E878ECFFFF
0160:26E632   add  esp,0004 83C404
0160:26E635   jmp  0026E7F4 ($+1ba) E9BA010000
0160:26E63A   push 000000C8 68C8000000
0160:26E63F   push 0000 6A00
0160:26E641   call 00272A80 ($+443a) E83A440000
0160:26E646   add  esp,0008 83C408
0160:26E649   push dword [002B47BC] FF35BC472B00
0160:26E64F   push 0001 6A01
0160:26E651   call 00272A80 ($+442a) E82A440000
0160:26E656   add  esp,0008 83C408
0160:26E659   push 0064 6A64
0160:26E65B   push 0003 6A03
0160:26E65D   call 00272A80 ($+441e) E81E440000
0160:26E662   add  esp,0008 83C408
0160:26E665   mov  eax,[002B4794] A194472B00
0160:26E66A   inc  eax 40
0160:26E66B   push eax 50
0160:26E66C   push 0004 6A04
0160:26E66E   call 00272A80 ($+440d) E80D440000
0160:26E673   add  esp,0008 83C408
0160:26E676   push 007F 6A7F
0160:26E678   push 0005 6A05
0160:26E67A   call 00272A80 ($+4401) E801440000
0160:26E67F   add  esp,0008 83C408
0160:26E682   push 0000028F 688F020000
0160:26E687   push 0006 6A06
0160:26E689   call 00272A80 ($+43f2) E8F2430000
0160:26E68E   add  esp,0008 83C408
0160:26E691   cmp  byte [002B479C],00 803D9C472B0000
0160:26E698   je   0026E6A8 ($+e) 740E
0160:26E69A   push 0001 6A01
0160:26E69C   push 0007 6A07
0160:26E69E   call 00272A80 ($+43dd) E8DD430000
0160:26E6A3   add  esp,0008 83C408
0160:26E6A6   jmp  short 0026E6B4 ($+c) EB0C
0160:26E6A8   push 0000 6A00
0160:26E6AA   push 0007 6A07
0160:26E6AC   call 00272A80 ($+43cf) E8CF430000
0160:26E6B1   add  esp,0008 83C408
0160:26E6B4   cmp  byte [002B479B],00 803D9B472B0000
0160:26E6BB   jne  0026E6C9 ($+c) 750C
0160:26E6BD   push 0000 6A00
0160:26E6BF   push 0011 6A11
0160:26E6C1   call 00272A80 ($+43ba) E8BA430000
0160:26E6C6   add  esp,0008 83C408
0160:26E6C9   cmp  byte [002B47AE],00 803DAE472B0000
0160:26E6D0   je   0026E6EC ($+1a) 741A
0160:26E6D2   push 0001 6A01
0160:26E6D4   push 0008 6A08
0160:26E6D6   call 00272A80 ($+43a5) E8A5430000
0160:26E6DB   add  esp,0008 83C408
0160:26E6DE   push 0001 6A01
0160:26E6E0   push 0009 6A09
0160:26E6E2   call 00272A80 ($+4399) E899430000
0160:26E6E7   add  esp,0008 83C408
0160:26E6EA   jmp  short 0026E704 ($+18) EB18
0160:26E6EC   push 0000 6A00
0160:26E6EE   push 0008 6A08
0160:26E6F0   call 00272A80 ($+438b) E88B430000
0160:26E6F5   add  esp,0008 83C408
0160:26E6F8   push 0000 6A00
0160:26E6FA   push 0009 6A09
0160:26E6FC   call 00272A80 ($+437f) E87F430000
0160:26E701   add  esp,0008 83C408
0160:26E704   call 00271EE0 ($+37d7) E8D7370000
0160:26E709   mov  eax,00352D90 B8902D3500
0160:26E70E   push eax 50
0160:26E70F   mov  eax,00351AB0 B8B01A3500
0160:26E714   push eax 50
0160:26E715   call 00274330 ($+5c16) E8165C0000
0160:26E71A   add  esp,0008 83C408
0160:26E71D   mov  [00351B48],eax A3481B3500
0160:26E722   cmp  dword [00351B48],0000 833D481B350000
0160:26E729   jne  0026E777 ($+4c) 754C
0160:26E72B   cmp  byte [002B47FC],00 803DFC472B0000
0160:26E732   jne  0026E739 ($+5) 7505
0160:26E734   call 002729C0 ($+4287) E887420000
0160:26E739   call 00271F20 ($+37e2) E8E2370000
0160:26E73E   mov  byte [002B4798],00 C60598472B0000
0160:26E745   mov  byte [002B4799],00 C60599472B0000
0160:26E74C   push dword [002B47A0] FF35A0472B00
0160:26E752   call 00264E80 ($-98d7) E82967FFFF
0160:26E757   add  esp,0004 83C404
0160:26E75A   mov  dword [002B47A4],00000000 C705A4472B0000000000
0160:26E764   push dword [002B47A8] FF35A8472B00
0160:26E76A   call 00264E80 ($-98ef) E81167FFFF
0160:26E76F   add  esp,0004 83C404
0160:26E772   jmp  0026E7F4 ($+7d) E97D000000
0160:26E777   call 00271F20 ($+37a4) E8A4370000
0160:26E77C   cmp  byte [002B4798],00 803D98472B0000
0160:26E783   je   0026E7F4 ($+6f) 746F
0160:26E785   imul eax,[002B4794],17 6B0594472B0017
0160:26E78C   mov  edx,00351750 BA50173500
0160:26E791   add  edx,eax 01C2
0160:26E793   mov  [00351B4C],edx 89154C1B3500
0160:26E799   mov  dword [ebp-000C],00351750 C745F450173500
0160:26E7A0   mov  dword [ebp-0008],00000000 C745F800000000
0160:26E7A7   mov  eax,[ebp-000C] 8B45F4
0160:26E7AA   cmp  eax,[00351B4C] 3B054C1B3500
0160:26E7B0   jc   0026E7C3 ($+11) 7211
0160:26E7B2   jmp  short 0026E7DF ($+2b) EB2B
0160:26E7B4   mov  eax,[ebp-000C] 8B45F4
0160:26E7B7   add  dword [ebp-000C],0017 8345F417
0160:26E7BB   mov  eax,[ebp-0008] 8B45F8
0160:26E7BE   inc  dword [ebp-0008] FF45F8
0160:26E7C1   jmp  short 0026E7A7 ($-1c) EBE4
0160:26E7C3   push dword [00351B48] FF35481B3500
0160:26E7C9   call 00274510 ($+5d42) E8425D0000
0160:26E7CE   add  esp,0004 83C404
0160:26E7D1   mov  edx,[ebp-000C] 8B55F4
0160:26E7D4   mov  [edx],eax 8902
0160:26E7D6   mov  eax,[ebp-000C] 8B45F4
0160:26E7D9   mov  byte [eax+0014],00 C6401400
0160:26E7DD   jmp  short 0026E7B4 ($-2b) EBD5
0160:26E7DF   mov  byte [002B479A],01 C6059A472B0001
0160:26E7E6   push dword [002B47B0] FF35B0472B00
0160:26E7EC   call 0026F470 ($+c7f) E87F0C0000
0160:26E7F1   add  esp,0004 83C404
0160:26E7F4   mov  esp,ebp 89EC
0160:26E7F6   pop  ebp 5D
0160:26E7F7   pop  edi 5F
0160:26E7F8   pop  esi 5E
0160:26E7F9   pop  ebx 5B
0160:26E7FA   ret C3
0160:26E7FB   lea  eax,[eax] 8D4000
0160:26E7FE   mov  ecx,ecx 8BC9
0160:26E800   push ebx 53
0160:26E801   push esi 56
0160:26E802   push edi 57
0160:26E803   push ebp 55
0160:26E804   mov  ebp,esp 89E5
0160:26E806   sub  esp,00000008 81EC08000000
0160:26E80C   mov  dword [ebp-0004],00000001 C745FC01000000
0160:26E813   cmp  dword [ebp-0004],0000 837DFC00
0160:26E817   jz   0026E8E4 ($+c7) 0F84C7000000
0160:26E81D   xor  eax,eax 31C0
0160:26E81F   mov  al,[002B47AC] A0AC472B00
0160:26E824   push eax 50
0160:26E825   call 00265300 ($-952a) E8D66AFFFF
0160:26E82A   add  esp,0004 83C404
0160:26E82D   mov  [ebp-0004],eax 8945FC
0160:26E830   cmp  dword [ebp-0004],0000 837DFC00
0160:26E834   jz   0026E8DF ($+a5) 0F84A5000000
0160:26E83A   mov  ax,[002B47B6] 66A1B6472B00
0160:26E840   mov  [ebp-0008],eax 8945F8
0160:26E843   cmp  dword [ebp-0008],0336 66817DF83603
0160:26E849   jc   0026E881 ($+36) 7236
0160:26E84B   cmp  dword [ebp-0008],0336 66817DF83603
0160:26E851   jbe  0026E8B3 ($+5c) 0F865C000000
0160:26E857   cmp  dword [ebp-0008],0656 66817DF85606
0160:26E85D   jc   0026E874 ($+15) 7215
0160:26E85F   cmp  dword [ebp-0008],0656 66817DF85606
0160:26E865   jbe  0026E8A8 ($+41) 7641
0160:26E867   cmp  dword [ebp-0008],066C 66817DF86C06
0160:26E86D   je   0026E89D ($+2e) 742E
0160:26E86F   jmp  0026E8DF ($+6b) E96B000000
0160:26E874   cmp  dword [ebp-0008],064B 66817DF84B06
0160:26E87A   je   0026E8BE ($+42) 7442
0160:26E87C   jmp  0026E8DF ($+5e) E95E000000
0160:26E881   cmp  dword [ebp-0008],0320 66817DF82003
0160:26E887   jc   0026E89B ($+12) 7212
0160:26E889   cmp  dword [ebp-0008],0320 66817DF82003
0160:26E88F   jbe  0026E8D4 ($+43) 7643
0160:26E891   cmp  dword [ebp-0008],032B 66817DF82B03
0160:26E897   je   0026E8C9 ($+30) 7430
0160:26E899   jmp  short 0026E8DF ($+44) EB44
0160:26E89B   jmp  short 0026E8DF ($+42) EB42
0160:26E89D   mov  dword [002B47B6],0656 66C705B6472B005606
0160:26E8A6   jmp  short 0026E8DF ($+37) EB37
0160:26E8A8   mov  dword [002B47B6],0336 66C705B6472B003603
0160:26E8B1   jmp  short 0026E8DF ($+2c) EB2C
0160:26E8B3   mov  dword [002B47B6],064B 66C705B6472B004B06
0160:26E8BC   jmp  short 0026E8DF ($+21) EB21
0160:26E8BE   mov  dword [002B47B6],032B 66C705B6472B002B03
0160:26E8C7   jmp  short 0026E8DF ($+16) EB16
0160:26E8C9   mov  dword [002B47B6],0320 66C705B6472B002003
0160:26E8D2   jmp  short 0026E8DF ($+b) EB0B
0160:26E8D4   mov  dword [002B47B6],0000 66C705B6472B000000
0160:26E8DD   jmp  short 0026E8E4 ($+5) EB05
0160:26E8DF   jmp  0026E813 ($-d1) E92FFFFFFF
0160:26E8E4   mov  esp,ebp 89EC
0160:26E8E6   pop  ebp 5D
0160:26E8E7   pop  edi 5F
0160:26E8E8   pop  esi 5E
0160:26E8E9   pop  ebx 5B
0160:26E8EA   ret C3
0160:26E8EB   add  [eax],al 0000
0160:26E8ED   add  [eax],al 0000
0160:26E8EF   add  [ebx+0056],dl 005356
0160:26E8F2   push edi 57
0160:26E8F3   push ebp 55
0160:26E8F4   mov  ebp,esp 89E5
0160:26E8F6   sub  esp,00000004 81EC04000000
0160:26E8FC   cmp  byte [002B4798],00 803D98472B0000
0160:26E903   je   0026E90E ($+9) 7409
0160:26E905   cmp  byte [002B4799],00 803D99472B0000
0160:26E90C   jne  0026E910 ($+2) 7502
0160:26E90E   jmp  short 0026E962 ($+52) EB52
0160:26E910   call 00270850 ($+1f3b) E83B1F0000
0160:26E915   mov  dword [ebp-0004],00351750 C745FC50173500
0160:26E91C   mov  eax,[ebp-0004] 8B45FC
0160:26E91F   cmp  eax,[00351B4C] 3B054C1B3500
0160:26E925   jc   0026E932 ($+b) 720B
0160:26E927   jmp  short 0026E962 ($+39) EB39
0160:26E929   mov  eax,[ebp-0004] 8B45FC
0160:26E92C   add  dword [ebp-0004],0017 8345FC17
0160:26E930   jmp  short 0026E91C ($-16) EBEA
0160:26E932   mov  eax,[ebp-0004] 8B45FC
0160:26E935   push dword [eax] FF30
0160:26E937   call 00274D00 ($+63c4) E8C4630000
0160:26E93C   add  esp,0004 83C404
0160:26E93F   mov  eax,[ebp-0004] 8B45FC
0160:26E942   mov  dword [eax+0012],0000 66C740120000
0160:26E948   mov  eax,[ebp-0004] 8B45FC
0160:26E94B   mov  dword [eax+000E],00000000 C7400E00000000
0160:26E952   mov  eax,[ebp-0004] 8B45FC
0160:26E955   mov  byte [eax+0014],00 C6401400
0160:26E959   mov  eax,[ebp-0004] 8B45FC
0160:26E95C   mov  byte [eax+0015],00 C6401500
0160:26E960   jmp  short 0026E929 ($-39) EBC7
0160:26E962   call 00280040 ($+116d9) E8D9160100
0160:26E967   mov  esp,ebp 89EC
0160:26E969   pop  ebp 5D
0160:26E96A   pop  edi 5F
0160:26E96B   pop  esi 5E
0160:26E96C   pop  ebx 5B
0160:26E96D   ret C3
0160:26E96E   add  [eax],al 0000
0160:26E970   push ebx 53
0160:26E971   push esi 56
0160:26E972   push edi 57
0160:26E973   push ebp 55
0160:26E974   mov  ebp,esp 89E5
0160:26E976   sub  esp,000000C8 81ECC8000000
0160:26E97C   mov  byte [ebp-0008],00 C645F800
0160:26E980   cmp  byte [002B47FC],00 803DFC472B0000
0160:26E987   jz   0026F00C ($+67f) 0F847F060000
0160:26E98D   cmp  byte [002B47B8],00 803DB8472B0000
0160:26E994   jne  0026E9C3 ($+2d) 752D
0160:26E996   call 00271F60 ($+35c5) E8C5350000
0160:26E99B   mov  eax,00264CD0 B8D04C2600
0160:26E9A0   push eax 50
0160:26E9A1   call 0027E3F0 ($+fa4a) E84AFA0000
0160:26E9A6   add  esp,0004 83C404
0160:26E9A9   mov  eax,00264E80 B8804E2600
0160:26E9AE   push eax 50
0160:26E9AF   call 0027E420 ($+fa6c) E86CFA0000
0160:26E9B4   add  esp,0004 83C404
0160:26E9B7   call 002727D0 ($+3e14) E8143E0000
0160:26E9BC   mov  byte [002B47B8],01 C605B8472B0001
0160:26E9C3   push 0078 6A78
0160:26E9C5   push 000B 6A0B
0160:26E9C7   call 00272A80 ($+40b4) E8B4400000
0160:26E9CC   add  esp,0008 83C408
0160:26E9CF   push 0001 6A01
0160:26E9D1   push 000C 6A0C
0160:26E9D3   call 00272A80 ($+40a8) E8A8400000
0160:26E9D8   add  esp,0008 83C408
0160:26E9DB   push 007F 6A7F
0160:26E9DD   push 000D 6A0D
0160:26E9DF   call 00272A80 ($+409c) E89C400000
0160:26E9E4   add  esp,0008 83C408
0160:26E9E7   push 0001 6A01
0160:26E9E9   push 000E 6A0E
0160:26E9EB   call 00272A80 ($+4090) E890400000
0160:26E9F0   add  esp,0008 83C408
0160:26E9F3   push 0000 6A00
0160:26E9F5   push 000F 6A0F
0160:26E9F7   call 00272A80 ($+4084) E884400000
0160:26E9FC   add  esp,0008 83C408
0160:26E9FF   push 000C 6A0C
0160:26EA01   push 0010 6A10
0160:26EA03   call 00272A80 ($+4078) E878400000
0160:26EA08   add  esp,0008 83C408
0160:26EA0B   cmp  byte [002B479B],00 803D9B472B0000
0160:26EA12   jne  0026EA20 ($+c) 750C
0160:26EA14   push 0000 6A00
0160:26EA16   push 0011 6A11
0160:26EA18   call 00272A80 ($+4063) E863400000
0160:26EA1D   add  esp,0008 83C408
0160:26EA20   mov  eax,002A3140 B840312A00
0160:26EA25   push eax 50
0160:26EA26   mov  eax,00352B50 B8502B3500
0160:26EA2B   push eax 50
0160:26EA2C   call 0027B050 ($+c61f) E81FC60000
0160:26EA31   add  esp,0008 83C408
0160:26EA34   test eax,eax 85C0
0160:26EA36   jne  0026EA5E ($+26) 7526
0160:26EA38   mov  eax,00352B50 B8502B3500
0160:26EA3D   push eax 50
0160:26EA3E   mov  eax,[00352BE0] A1E02B3500
0160:26EA43   add  eax,0040 83C040
0160:26EA46   push eax 50
0160:26EA47   mov  eax,002A3144 B844312A00
0160:26EA4C   push eax 50
0160:26EA4D   lea  eax,[ebp-000000C8] 8D8538FFFFFF
0160:26EA53   push eax 50
0160:26EA54   call 0026F3D5 ($+97c) E87C090000
0160:26EA59   add  esp,0010 83C410
0160:26EA5C   jmp  short 0026EA82 ($+24) EB24
0160:26EA5E   mov  eax,00352B50 B8502B3500
0160:26EA63   push eax 50
0160:26EA64   mov  eax,[00352BE0] A1E02B3500
0160:26EA69   add  eax,0040 83C040
0160:26EA6C   push eax 50
0160:26EA6D   mov  eax,002A3158 B858312A00
0160:26EA72   push eax 50
0160:26EA73   lea  eax,[ebp-000000C8] 8D8538FFFFFF
0160:26EA79   push eax 50
0160:26EA7A   call 0026F3D5 ($+956) E856090000
0160:26EA7F   add  esp,0010 83C410
0160:26EA82   lea  eax,[ebp-000000C8] 8D8538FFFFFF
0160:26EA88   push eax 50
0160:26EA89   call 00277AE0 ($+9052) E852900000
0160:26EA8E   add  esp,0004 83C404
0160:26EA91   call 00271EE0 ($+344a) E84A340000
0160:26EA96   movsx eax,al 0FBEC0
0160:26EA99   cmp  eax,FFFF 83F8FF
0160:26EA9C   jne  0026EADF ($+41) 7541
0160:26EA9E   mov  byte [002B47FC],00 C605FC472B0000
0160:26EAA5   mov  byte [002B47FD],00 C605FD472B0000
0160:26EAAC   cmp  byte [002B4798],00 803D98472B0000
0160:26EAB3   je   0026EABE ($+9) 7409
0160:26EAB5   cmp  byte [002B479A],00 803D9A472B0000
0160:26EABC   jne  0026EAC0 ($+2) 7502
0160:26EABE   jmp  short 0026EAC7 ($+7) EB07
0160:26EAC0   call 0027AC10 ($+c14b) E84BC10000
0160:26EAC5   jmp  short 0026EADA ($+13) EB13
0160:26EAC7   mov  byte [002B4798],00 C60598472B0000
0160:26EACE   mov  byte [002B4799],00 C60599472B0000
0160:26EAD5   call 002729C0 ($+3ee6) E8E63E0000
0160:26EADA   jmp  0026F00C ($+52d) E92D050000
0160:26EADF   mov  eax,002A316C B86C312A00
0160:26EAE4   push eax 50
0160:26EAE5   call 0027AE33 ($+c349) E849C30000
0160:26EAEA   add  esp,0004 83C404
0160:26EAED   mov  [ebp-0010],eax 8945F0
0160:26EAF0   cmp  dword [ebp-0010],0000 837DF000
0160:26EAF4   jz   0026EB85 ($+8b) 0F848B000000
0160:26EAFA   lea  eax,[ebp-0032] 8D45CE
0160:26EAFD   push eax 50
0160:26EAFE   lea  eax,[ebp-0034] 8D45CC
0160:26EB01   push eax 50
0160:26EB02   lea  eax,[ebp-0036] 8D45CA
0160:26EB05   push eax 50
0160:26EB06   lea  eax,[ebp-0038] 8D45C8
0160:26EB09   push eax 50
0160:26EB0A   lea  eax,[ebp-0020] 8D45E0
0160:26EB0D   push eax 50
0160:26EB0E   mov  eax,002A3174 B874312A00
0160:26EB13   push eax 50
0160:26EB14   mov  eax,[ebp-0010] 8B45F0
0160:26EB17   push eax 50
0160:26EB18   call 0027F187 ($+1066a) E86A060100
0160:26EB1D   add  esp,001C 83C41C
0160:26EB20   lea  eax,[ebp-0038] 8D45C8
0160:26EB23   push eax 50
0160:26EB24   lea  eax,[ebp-0020] 8D45E0
0160:26EB27   push eax 50
0160:26EB28   call 00276850 ($+7d23) E8237D0000
0160:26EB2D   add  esp,0008 83C408
0160:26EB30   mov  [00351C7C],eax A37C1C3500
0160:26EB35   cmp  dword [00351C7C],0000 833D7C1C350000
0160:26EB3C   jne  0026EB64 ($+26) 7526
0160:26EB3E   cmp  byte [002B4798],00 803D98472B0000
0160:26EB45   jne  0026EB4C ($+5) 7505
0160:26EB47   call 002729C0 ($+3e74) E8743E0000
0160:26EB4C   call 00271F20 ($+33cf) E8CF330000
0160:26EB51   mov  byte [002B47FC],00 C605FC472B0000
0160:26EB58   mov  byte [002B47FD],00 C605FD472B0000
0160:26EB5F   jmp  0026F00C ($+4a8) E9A8040000
0160:26EB64   lea  eax,[ebp-0020] 8D45E0
0160:26EB67   push eax 50
0160:26EB68   mov  eax,002A3184 B884312A00
0160:26EB6D   push eax 50
0160:26EB6E   mov  eax,00351BE0 B8E01B3500
0160:26EB73   push eax 50
0160:26EB74   call 0026F3D5 ($+85c) E85C080000
0160:26EB79   add  esp,000C 83C40C
0160:26EB7C   mov  byte [ebp-0008],01 C645F801
0160:26EB80   jmp  0026EC22 ($+9d) E99D000000
0160:26EB85   mov  eax,002A3188 B888312A00
0160:26EB8A   push eax 50
0160:26EB8B   mov  eax,00351B60 B8601B3500
0160:26EB90   push eax 50
0160:26EB91   call 00273190 ($+45fa) E8FA450000
0160:26EB96   add  esp,0008 83C408
0160:26EB99   test eax,eax 85C0
0160:26EB9B   je   0026EBF1 ($+54) 7454
0160:26EB9D   mov  eax,002A3190 B890312A00
0160:26EBA2   push eax 50
0160:26EBA3   mov  eax,00351BE0 B8E01B3500
0160:26EBA8   push eax 50
0160:26EBA9   call 00279F5D ($+b3af) E8AFB30000
0160:26EBAE   add  esp,0008 83C408
0160:26EBB1   test eax,eax 85C0
0160:26EBB3   jne  0026EBDB ($+26) 7526
0160:26EBB5   cmp  byte [002B4798],00 803D98472B0000
0160:26EBBC   jne  0026EBC3 ($+5) 7505
0160:26EBBE   call 002729C0 ($+3dfd) E8FD3D0000
0160:26EBC3   call 00271F20 ($+3358) E858330000
0160:26EBC8   mov  byte [002B47FC],00 C605FC472B0000
0160:26EBCF   mov  byte [002B47FD],00 C605FD472B0000
0160:26EBD6   jmp  0026F00C ($+431) E931040000
0160:26EBDB   mov  eax,00351C7C B87C1C3500
0160:26EBE0   push eax 50
0160:26EBE1   call 00276710 ($+7b2a) E82A7B0000
0160:26EBE6   add  esp,0004 83C404
0160:26EBE9   test eax,eax 85C0
0160:26EBEB   jne  0026EBF1 ($+4) 7504
0160:26EBED   mov  byte [ebp-0008],01 C645F801
0160:26EBF1   cmp  byte [ebp-0008],00 807DF800
0160:26EBF5   jne  0026EC1D ($+26) 7526
0160:26EBF7   cmp  byte [002B4798],00 803D98472B0000
0160:26EBFE   jne  0026EC05 ($+5) 7505
0160:26EC00   call 002729C0 ($+3dbb) E8BB3D0000
0160:26EC05   call 00271F20 ($+3316) E816330000
0160:26EC0A   mov  byte [002B47FC],00 C605FC472B0000
0160:26EC11   mov  byte [002B47FD],00 C605FD472B0000
0160:26EC18   jmp  0026F00C ($+3ef) E9EF030000
0160:26EC1D   call 00271F20 ($+32fe) E8FE320000
0160:26EC22   call 00271F20 ($+32f9) E8F9320000
0160:26EC27   push dword [00351C7C] FF357C1C3500
0160:26EC2D   call 00276A30 ($+7dfe) E8FE7D0000
0160:26EC32   add  esp,0004 83C404
0160:26EC35   mov  [00351C78],eax A3781C3500
0160:26EC3A   mov  eax,002A3134 B834312A00
0160:26EC3F   push eax 50
0160:26EC40   mov  eax,00351BE0 B8E01B3500
0160:26EC45   push eax 50
0160:26EC46   call 00279F5D ($+b312) E812B30000
0160:26EC4B   add  esp,0008 83C408
0160:26EC4E   test eax,eax 85C0
0160:26EC50   jne  0026EC6B ($+19) 7519
0160:26EC52   mov  eax,002A3198 B898312A00
0160:26EC57   push eax 50
0160:26EC58   mov  eax,00351C84 B8841C3500
0160:26EC5D   push eax 50
0160:26EC5E   call 0026F3D5 ($+772) E872070000
0160:26EC63   add  esp,0008 83C408
0160:26EC66   jmp  0026EF86 ($+31b) E91B030000
0160:26EC6B   mov  eax,002A30F8 B8F8302A00
0160:26EC70   push eax 50
0160:26EC71   mov  eax,00351BE0 B8E01B3500
0160:26EC76   push eax 50
0160:26EC77   call 00279F5D ($+b2e1) E8E1B20000
0160:26EC7C   add  esp,0008 83C408
0160:26EC7F   test eax,eax 85C0
0160:26EC81   jne  0026EC9C ($+19) 7519
0160:26EC83   mov  eax,002A3198 B898312A00
0160:26EC88   push eax 50
0160:26EC89   mov  eax,00351C84 B8841C3500
0160:26EC8E   push eax 50
0160:26EC8F   call 0026F3D5 ($+741) E841070000
0160:26EC94   add  esp,0008 83C408
0160:26EC97   jmp  0026EF86 ($+2ea) E9EA020000
0160:26EC9C   mov  eax,002A3128 B828312A00
0160:26ECA1   push eax 50
0160:26ECA2   mov  eax,00351BE0 B8E01B3500
0160:26ECA7   push eax 50
0160:26ECA8   call 00279F5D ($+b2b0) E8B0B20000
0160:26ECAD   add  esp,0008 83C408
0160:26ECB0   test eax,eax 85C0
0160:26ECB2   jne  0026ECCD ($+19) 7519
0160:26ECB4   mov  eax,002A3198 B898312A00
0160:26ECB9   push eax 50
0160:26ECBA   mov  eax,00351C84 B8841C3500
0160:26ECBF   push eax 50
0160:26ECC0   call 0026F3D5 ($+710) E810070000
0160:26ECC5   add  esp,0008 83C408
0160:26ECC8   jmp  0026EF86 ($+2b9) E9B9020000
0160:26ECCD   mov  eax,002A3104 B804312A00
0160:26ECD2   push eax 50
0160:26ECD3   mov  eax,00351BE0 B8E01B3500
0160:26ECD8   push eax 50
0160:26ECD9   call 00279F5D ($+b27f) E87FB20000
0160:26ECDE   add  esp,0008 83C408
0160:26ECE1   test eax,eax 85C0
0160:26ECE3   jne  0026ECFE ($+19) 7519
0160:26ECE5   mov  eax,002A3198 B898312A00
0160:26ECEA   push eax 50
0160:26ECEB   mov  eax,00351C84 B8841C3500
0160:26ECF0   push eax 50
0160:26ECF1   call 0026F3D5 ($+6df) E8DF060000
0160:26ECF6   add  esp,0008 83C408
0160:26ECF9   jmp  0026EF86 ($+288) E988020000
0160:26ECFE   mov  eax,002A310C B80C312A00
0160:26ED03   push eax 50
0160:26ED04   mov  eax,00351BE0 B8E01B3500
0160:26ED09   push eax 50
0160:26ED0A   call 00279F5D ($+b24e) E84EB20000
0160:26ED0F   add  esp,0008 83C408
0160:26ED12   test eax,eax 85C0
0160:26ED14   jne  0026ED2F ($+19) 7519
0160:26ED16   mov  eax,002A3198 B898312A00
0160:26ED1B   push eax 50
0160:26ED1C   mov  eax,00351C84 B8841C3500
0160:26ED21   push eax 50
0160:26ED22   call 0026F3D5 ($+6ae) E8AE060000
0160:26ED27   add  esp,0008 83C408
0160:26ED2A   jmp  0026EF86 ($+257) E957020000
0160:26ED2F   mov  eax,002A3118 B818312A00
0160:26ED34   push eax 50
0160:26ED35   mov  eax,00351BE0 B8E01B3500
0160:26ED3A   push eax 50
0160:26ED3B   call 00279F5D ($+b21d) E81DB20000
0160:26ED40   add  esp,0008 83C408
0160:26ED43   test eax,eax 85C0
0160:26ED45   jne  0026ED60 ($+19) 7519
0160:26ED47   mov  eax,002A3198 B898312A00
0160:26ED4C   push eax 50
0160:26ED4D   mov  eax,00351C84 B8841C3500
0160:26ED52   push eax 50
0160:26ED53   call 0026F3D5 ($+67d) E87D060000
0160:26ED58   add  esp,0008 83C408
0160:26ED5B   jmp  0026EF86 ($+226) E926020000
0160:26ED60   mov  eax,002A30C4 B8C4302A00
0160:26ED65   push eax 50
0160:26ED66   mov  eax,00351BE0 B8E01B3500
0160:26ED6B   push eax 50
0160:26ED6C   call 00279F5D ($+b1ec) E8ECB10000
0160:26ED71   add  esp,0008 83C408
0160:26ED74   test eax,eax 85C0
0160:26ED76   jne  0026ED91 ($+19) 7519
0160:26ED78   mov  eax,002A3198 B898312A00
0160:26ED7D   push eax 50
0160:26ED7E   mov  eax,00351C84 B8841C3500
0160:26ED83   push eax 50
0160:26ED84   call 0026F3D5 ($+64c) E84C060000
0160:26ED89   add  esp,0008 83C408
0160:26ED8C   jmp  0026EF86 ($+1f5) E9F5010000
0160:26ED91   mov  eax,002A30B8 B8B8302A00
0160:26ED96   push eax 50
0160:26ED97   mov  eax,00351BE0 B8E01B3500
0160:26ED9C   push eax 50
0160:26ED9D   call 00279F5D ($+b1bb) E8BBB10000
0160:26EDA2   add  esp,0008 83C408
0160:26EDA5   test eax,eax 85C0
0160:26EDA7   jne  0026EDC2 ($+19) 7519
0160:26EDA9   mov  eax,002A3198 B898312A00
0160:26EDAE   push eax 50
0160:26EDAF   mov  eax,00351C84 B8841C3500
0160:26EDB4   push eax 50
0160:26EDB5   call 0026F3D5 ($+61b) E81B060000
0160:26EDBA   add  esp,0008 83C408
0160:26EDBD   jmp  0026EF86 ($+1c4) E9C4010000
0160:26EDC2   mov  eax,002A319C B89C312A00
0160:26EDC7   push eax 50
0160:26EDC8   mov  eax,00351BE0 B8E01B3500
0160:26EDCD   push eax 50
0160:26EDCE   call 00279F5D ($+b18a) E88AB10000
0160:26EDD3   add  esp,0008 83C408
0160:26EDD6   test eax,eax 85C0
0160:26EDD8   jne  0026EDF3 ($+19) 7519
0160:26EDDA   mov  eax,002A3198 B898312A00
0160:26EDDF   push eax 50
0160:26EDE0   mov  eax,00351C84 B8841C3500
0160:26EDE5   push eax 50
0160:26EDE6   call 0026F3D5 ($+5ea) E8EA050000
0160:26EDEB   add  esp,0008 83C408
0160:26EDEE   jmp  0026EF86 ($+193) E993010000
0160:26EDF3   mov  eax,002A30A0 B8A0302A00
0160:26EDF8   push eax 50
0160:26EDF9   mov  eax,00351BE0 B8E01B3500
0160:26EDFE   push eax 50
0160:26EDFF   call 00279F5D ($+b159) E859B10000
0160:26EE04   add  esp,0008 83C408
0160:26EE07   test eax,eax 85C0
0160:26EE09   jne  0026EE4F ($+44) 7544
0160:26EE0B   mov  eax,002A31A8 B8A8312A00
0160:26EE10   push eax 50
0160:26EE11   mov  eax,00351C84 B8841C3500
0160:26EE16   push eax 50
0160:26EE17   call 0026F3D5 ($+5b9) E8B9050000
0160:26EE1C   add  esp,0008 83C408
0160:26EE1F   mov  eax,002B4E48 B8484E2B00
0160:26EE24   push eax 50
0160:26EE25   call 00280740 ($+11916) E816190100
0160:26EE2A   add  esp,0004 83C404
0160:26EE2D   cmp  byte [002B4815],00 803D15482B0000
0160:26EE34   jne  0026EE4A ($+14) 7514
0160:26EE36   mov  eax,002A31AC B8AC312A00
0160:26EE3B   push eax 50
0160:26EE3C   mov  eax,00351C84 B8841C3500
0160:26EE41   push eax 50
0160:26EE42   call 0026F3D5 ($+58e) E88E050000
0160:26EE47   add  esp,0008 83C408
0160:26EE4A   jmp  0026EF86 ($+137) E937010000
0160:26EE4F   mov  eax,002A30D0 B8D0302A00
0160:26EE54   push eax 50
0160:26EE55   mov  eax,00351BE0 B8E01B3500
0160:26EE5A   push eax 50
0160:26EE5B   call 00279F5D ($+b0fd) E8FDB00000
0160:26EE60   add  esp,0008 83C408
0160:26EE63   test eax,eax 85C0
0160:26EE65   jne  0026EE80 ($+19) 7519
0160:26EE67   mov  eax,002A31AC B8AC312A00
0160:26EE6C   push eax 50
0160:26EE6D   mov  eax,00351C84 B8841C3500
0160:26EE72   push eax 50
0160:26EE73   call 0026F3D5 ($+55d) E85D050000
0160:26EE78   add  esp,0008 83C408
0160:26EE7B   jmp  0026EF86 ($+106) E906010000
0160:26EE80   mov  eax,002A30E8 B8E8302A00
0160:26EE85   push eax 50
0160:26EE86   mov  eax,00351BE0 B8E01B3500
0160:26EE8B   push eax 50
0160:26EE8C   call 00279F5D ($+b0cc) E8CCB00000
0160:26EE91   add  esp,0008 83C408
0160:26EE94   test eax,eax 85C0
0160:26EE96   jne  0026EEB1 ($+19) 7519
0160:26EE98   mov  eax,002A31AC B8AC312A00
0160:26EE9D   push eax 50
0160:26EE9E   mov  eax,00351C84 B8841C3500
0160:26EEA3   push eax 50
0160:26EEA4   call 0026F3D5 ($+52c) E82C050000
0160:26EEA9   add  esp,0008 83C408
0160:26EEAC   jmp  0026EF86 ($+d5) E9D5000000
0160:26EEB1   mov  eax,002A30DC B8DC302A00
0160:26EEB6   push eax 50
0160:26EEB7   mov  eax,00351BE0 B8E01B3500
0160:26EEBC   push eax 50
0160:26EEBD   call 00279F5D ($+b09b) E89BB00000
0160:26EEC2   add  esp,0008 83C408
0160:26EEC5   test eax,eax 85C0
0160:26EEC7   jne  0026EEE2 ($+19) 7519
0160:26EEC9   mov  eax,002A31B0 B8B0312A00
0160:26EECE   push eax 50
0160:26EECF   mov  eax,00351C84 B8841C3500
0160:26EED4   push eax 50
0160:26EED5   call 0026F3D5 ($+4fb) E8FB040000
0160:26EEDA   add  esp,0008 83C408
0160:26EEDD   jmp  0026EF86 ($+a4) E9A4000000
0160:26EEE2   push dword [00351C7C] FF357C1C3500
0160:26EEE8   call 002779A0 ($+8ab3) E8B38A0000
0160:26EEED   add  esp,0004 83C404
0160:26EEF0   test eax,eax 85C0
0160:26EEF2   jne  0026EF0D ($+19) 7519
0160:26EEF4   mov  eax,002A31AC B8AC312A00
0160:26EEF9   push eax 50
0160:26EEFA   mov  eax,00351C84 B8841C3500
0160:26EEFF   push eax 50
0160:26EF00   call 0026F3D5 ($+4d0) E8D0040000
0160:26EF05   add  esp,0008 83C408
0160:26EF08   jmp  0026EF86 ($+79) E979000000
0160:26EF0D   push dword [00351C7C] FF357C1C3500
0160:26EF13   call 002779A0 ($+8a88) E8888A0000
0160:26EF18   add  esp,0004 83C404
0160:26EF1B   cmp  eax,0001 83F801
0160:26EF1E   je   0026EF33 ($+13) 7413
0160:26EF20   push dword [00351C7C] FF357C1C3500
0160:26EF26   call 002779A0 ($+8a75) E8758A0000
0160:26EF2B   add  esp,0004 83C404
0160:26EF2E   cmp  eax,0002 83F802
0160:26EF31   jne  0026EF49 ($+16) 7516
0160:26EF33   mov  eax,002A3198 B898312A00
0160:26EF38   push eax 50
0160:26EF39   mov  eax,00351C84 B8841C3500
0160:26EF3E   push eax 50
0160:26EF3F   call 0026F3D5 ($+491) E891040000
0160:26EF44   add  esp,0008 83C408
0160:26EF47   jmp  short 0026EF86 ($+3d) EB3D
0160:26EF49   push dword [00351C7C] FF357C1C3500
0160:26EF4F   call 002769A0 ($+7a4c) E84C7A0000
0160:26EF54   add  esp,0004 83C404
0160:26EF57   cmp  byte [002B4798],00 803D98472B0000
0160:26EF5E   jne  0026EF65 ($+5) 7505
0160:26EF60   call 002729C0 ($+3a5b) E85B3A0000
0160:26EF65   mov  byte [002B47FC],00 C605FC472B0000
0160:26EF6C   mov  byte [002B47FD],00 C605FD472B0000
0160:26EF73   mov  eax,002A31B4 B8B4312A00
0160:26EF78   push eax 50
0160:26EF79   call 0026D2AA ($-1cd4) E82CE3FFFF
0160:26EF7E   add  esp,0004 83C404
0160:26EF81   jmp  0026F00C ($+86) E986000000
0160:26EF86   cmp  byte [002B47FC],00 803DFC472B0000
0160:26EF8D   je   0026EFF7 ($+68) 7468
0160:26EF8F   xor  ah,ah 30E4
0160:26EF91   mov  al,[002B4814] A014482B00
0160:26EF96   and  eax,0000FFFF 25FFFF0000
0160:26EF9B   push eax 50
0160:26EF9C   call 0026FAD0 ($+b2f) E82F0B0000
0160:26EFA1   add  esp,0004 83C404
0160:26EFA4   test eax,eax 85C0
0160:26EFA6   je   0026EFF7 ($+4f) 744F
0160:26EFA8   cmp  byte [002B4815],01 803D15482B0001
0160:26EFAF   jne  0026EFBD ($+c) 750C
0160:26EFB1   call 00280A80 ($+11aca) E8CA1A0100
0160:26EFB6   mov  byte [002B4815],00 C60515482B0000
0160:26EFBD   push dword [00351C7C] FF357C1C3500
0160:26EFC3   call 002769A0 ($+79d8) E8D8790000
0160:26EFC8   add  esp,0004 83C404
0160:26EFCB   cmp  byte [002B4798],00 803D98472B0000
0160:26EFD2   jne  0026EFD9 ($+5) 7505
0160:26EFD4   call 002729C0 ($+39e7) E8E7390000
0160:26EFD9   mov  byte [002B47FC],00 C605FC472B0000
0160:26EFE0   mov  byte [002B47FD],00 C605FD472B0000
0160:26EFE7   mov  eax,002A31D4 B8D4312A00
0160:26EFEC   push eax 50
0160:26EFED   call 0026D2AA ($-1d48) E8B8E2FFFF
0160:26EFF2   add  esp,0004 83C404
0160:26EFF5   jmp  short 0026F00C ($+15) EB15
0160:26EFF7   mov  byte [002B47FE],01 C605FE472B0001
0160:26EFFE   push dword [002B47F8] FF35F8472B00
0160:26F004   call 0026F410 ($+407) E807040000
0160:26F009   add  esp,0004 83C404
0160:26F00C   mov  esp,ebp 89EC
0160:26F00E   pop  ebp 5D
0160:26F00F   pop  edi 5F
0160:26F010   pop  esi 5E
0160:26F011   pop  ebx 5B
0160:26F012   ret C3
0160:26F013   add  [eax],al 0000
0160:26F015   add  [eax],al 0000
0160:26F017   add  [eax],al 0000
0160:26F019   add  [eax],al 0000
0160:26F01B   add  [eax],al 0000
0160:26F01D   add  [eax],al 0000
0160:26F01F   add  [ebx+0056],dl 005356
0160:26F022   push edi 57
0160:26F023   push ebp 55
0160:26F024   mov  ebp,esp 89E5
0160:26F026   sub  esp,00000000 81EC00000000
0160:26F02C   cmp  byte [002B47FC],00 803DFC472B0000
0160:26F033   je   0026F03E ($+9) 7409
0160:26F035   cmp  byte [002B47FD],00 803DFD472B0000
0160:26F03C   jne  0026F040 ($+2) 7502
0160:26F03E   jmp  short 0026F04A ($+a) EB0A
0160:26F040   cmp  dword [002B4802],0000 66833D02482B0000
0160:26F048   jne  0026F04C ($+2) 7502
0160:26F04A   jmp  short 0026F0BE ($+72) EB72
0160:26F04C   cmp  byte [002B4818],00 803D18482B0000
0160:26F053   je   0026F063 ($+e) 740E
0160:26F055   push dword [00351C80] FF35801C3500
0160:26F05B   call 00273DC0 ($+4d60) E8604D0000
0160:26F060   add  esp,0004 83C404
0160:26F063   mov  byte [002B4819],00 C60519482B0000
0160:26F06A   mov  byte [002B4818],00 C60518482B0000
0160:26F071   mov  byte [002B4817],01 C60517482B0001
0160:26F078   mov  byte [002B4816],00 C60516482B0000
0160:26F07F   mov  byte [002B481A],FF C6051A482B00FF
0160:26F086   push dword [00351C78] FF35781C3500
0160:26F08C   call 00277170 ($+80df) E8DF800000
0160:26F091   add  esp,0004 83C404
0160:26F094   cmp  eax,0002 83F802
0160:26F097   je   0026F0B5 ($+1c) 741C
0160:26F099   push dword [00351C78] FF35781C3500
0160:26F09F   call 00276DE0 ($+7d3c) E83C7D0000
0160:26F0A4   add  esp,0004 83C404
0160:26F0A7   push dword [00351C78] FF35781C3500
0160:26F0AD   call 00276F00 ($+7e4e) E84E7E0000
0160:26F0B2   add  esp,0004 83C404
0160:26F0B5   mov  dword [002B4802],0000 66C70502482B000000
0160:26F0BE   pop  ebp 5D
0160:26F0BF   pop  edi 5F
0160:26F0C0   pop  esi 5E
0160:26F0C1   pop  ebx 5B
0160:26F0C2   ret C3
0160:26F0C3   add  [eax],al 0000
0160:26F0C5   add  [eax],al 0000
0160:26F0C7   add  [eax],al 0000
0160:26F0C9   add  [eax],al 0000
0160:26F0CB   add  [eax],al 0000
0160:26F0CD   add  [eax],al 0000
0160:26F0CF   add  [esi+0057],dl 005657
0160:26F0D2   push ebp 55
0160:26F0D3   mov  ebp,esp 89E5
0160:26F0D5   sub  esp,00000004 81EC04000000
0160:26F0DB   cmp  dword [ebp+0018],0000 837D1800
0160:26F0DF   jne  0026F110 ($+2f) 752F
0160:26F0E1   mov  byte [002B4819],01 C60519482B0001
0160:26F0E8   push 0000 6A00
0160:26F0EA   push 000B 6A0B
0160:26F0EC   mov  eax,[ebp+0014] 8B4514
0160:26F0EF   or   al,B0 0CB0
0160:26F0F1   push eax 50
0160:26F0F2   push dword [00351C78] FF35781C3500
0160:26F0F8   push dword [00351C7C] FF357C1C3500
0160:26F0FE   call 00279360 ($+a25d) E85DA20000
0160:26F103   add  esp,0014 83C414
0160:26F106   mov  eax,[ebp+0014] 8B4514
0160:26F109   mov  byte [eax+00351C90],01 C680901C350001
0160:26F110   cmp  dword [ebp+0018],0001 837D1801
0160:26F114   jne  0026F150 ($+3a) 753A
0160:26F116   push dword [00351C78] FF35781C3500
0160:26F11C   call 00276DE0 ($+7cbf) E8BF7C0000
0160:26F121   add  esp,0004 83C404
0160:26F124   push 0001 6A01
0160:26F126   push 0000 6A00
0160:26F128   mov  eax,[ebp+0014] 8B4514
0160:26F12B   or   al,B0 0CB0
0160:26F12D   push eax 50
0160:26F12E   push dword [00351C78] FF35781C3500
0160:26F134   push dword [00351C7C] FF357C1C3500
0160:26F13A   call 00279360 ($+a221) E821A20000
0160:26F13F   add  esp,0014 83C414
0160:26F142   push dword [00351C78] FF35781C3500
0160:26F148   call 00276E70 ($+7d23) E8237D0000
0160:26F14D   add  esp,0004 83C404
0160:26F150   mov  dword [ebp-0004],00000000 C745FC00000000
0160:26F157   mov  eax,[ebp-0004] 8B45FC
0160:26F15A   mov  esp,ebp 89EC
0160:26F15C   pop  ebp 5D
0160:26F15D   pop  edi 5F
0160:26F15E   pop  esi 5E
0160:26F15F   ret C3
0160:26F160   push ebx 53
0160:26F161   push esi 56
0160:26F162   push edi 57
0160:26F163   push ebp 55
0160:26F164   mov  ebp,esp 89E5
0160:26F166   sub  esp,00000004 81EC04000000
0160:26F16C   mov  byte [ebp-0004],00 C645FC00
0160:26F170   cmp  byte [002B47FC],00 803DFC472B0000
0160:26F177   je   0026F182 ($+9) 7409
0160:26F179   cmp  byte [002B47FD],00 803DFD472B0000
0160:26F180   jne  0026F184 ($+2) 7502
0160:26F182   jmp  short 0026F194 ($+10) EB10
0160:26F184   movsx edx,[ebp+0014] 0FBF5514
0160:26F188   xor  eax,eax 31C0
0160:26F18A   mov  ax,[002B4804] 66A104482B00
0160:26F190   cmp  edx,eax 39C2
0160:26F192   jle  0026F196 ($+2) 7E02
0160:26F194   jmp  short 0026F1A7 ($+11) EB11
0160:26F196   xor  edx,edx 31D2
0160:26F198   mov  dx,[002B4802] 668B1502482B00
0160:26F19F   movsx eax,[ebp+0014] 0FBF4514
0160:26F1A3   cmp  edx,eax 39C2
0160:26F1A5   jne  0026F1AC ($+5) 7505
0160:26F1A7   jmp  0026F3B7 ($+20b) E90B020000
0160:26F1AC   cmp  byte [002B4818],00 803D18482B0000
0160:26F1B3   je   0026F1C3 ($+e) 740E
0160:26F1B5   push dword [00351C80] FF35801C3500
0160:26F1BB   call 00273DC0 ($+4c00) E8004C0000
0160:26F1C0   add  esp,0004 83C404
0160:26F1C3   mov  byte [002B4819],00 C60519482B0000
0160:26F1CA   mov  byte [002B4818],00 C60518482B0000
0160:26F1D1   mov  byte [002B4817],01 C60517482B0001
0160:26F1D8   mov  byte [002B4816],00 C60516482B0000
0160:26F1DF   mov  byte [002B481A],FF C6051A482B00FF
0160:26F1E6   cmp  dword [002B4802],0000 66833D02482B0000
0160:26F1EE   je   0026F228 ($+38) 7438
0160:26F1F0   push dword [00351C78] FF35781C3500
0160:26F1F6   call 00277170 ($+7f75) E8757F0000
0160:26F1FB   add  esp,0004 83C404
0160:26F1FE   cmp  eax,0002 83F802
0160:26F201   je   0026F21F ($+1c) 741C
0160:26F203   push dword [00351C78] FF35781C3500
0160:26F209   call 00276DE0 ($+7bd2) E8D27B0000
0160:26F20E   add  esp,0004 83C404
0160:26F211   push dword [00351C78] FF35781C3500
0160:26F217   call 00276F00 ($+7ce4) E8E47C0000
0160:26F21C   add  esp,0004 83C404
0160:26F21F   mov  dword [002B4802],0000 66C70502482B000000
0160:26F228   push 0000 6A00
0160:26F22A   movsx eax,[ebp+0014] 0FBF4514
0160:26F22E   shl  eax,05 C1E005
0160:26F231   mov  edx,[002B4808] 8B1508482B00
0160:26F237   add  eax,edx 01D0
0160:26F239   push dword [eax+0012] FF7012
0160:26F23C   push dword [00351C78] FF35781C3500
0160:26F242   call 00276C00 ($+79b9) E8B9790000
0160:26F247   add  esp,000C 83C40C
0160:26F24A   mov  eax,0026F0D0 B8D0F02600
0160:26F24F   push eax 50
0160:26F250   push dword [00351C78] FF35781C3500
0160:26F256   call 00278670 ($+9415) E815940000
0160:26F25B   add  esp,0008 83C408
0160:26F25E   mov  byte [ebp-0004],00 C645FC00
0160:26F262   cmp  byte [ebp-0004],10 807DFC10
0160:26F266   jc   0026F275 ($+d) 720D
0160:26F268   jmp  0026F37B ($+10e) E90E010000
0160:26F26D   mov  al,[ebp-0004] 8A45FC
0160:26F270   inc  byte [ebp-0004] FE45FC
0160:26F273   jmp  short 0026F262 ($-13) EBED
0160:26F275   xor  eax,eax 31C0
0160:26F277   mov  al,[ebp-0004] 8A45FC
0160:26F27A   mov  byte [eax+00351C90],00 C680901C350000
0160:26F281   push 0000 6A00
0160:26F283   push 0000 6A00
0160:26F285   mov  al,[ebp-0004] 8A45FC
0160:26F288   or   al,B0 0CB0
0160:26F28A   and  eax,000000FF 25FF000000
0160:26F28F   push eax 50
0160:26F290   push dword [00351C78] FF35781C3500
0160:26F296   push dword [00351C7C] FF357C1C3500
0160:26F29C   call 00279360 ($+a0bf) E8BFA00000
0160:26F2A1   add  esp,0014 83C414
0160:26F2A4   push 0000 6A00
0160:26F2A6   push 0007 6A07
0160:26F2A8   mov  al,[ebp-0004] 8A45FC
0160:26F2AB   or   al,B0 0CB0
0160:26F2AD   and  eax,000000FF 25FF000000
0160:26F2B2   push eax 50
0160:26F2B3   push dword [00351C78] FF35781C3500
0160:26F2B9   push dword [00351C7C] FF357C1C3500
0160:26F2BF   call 00279360 ($+a09c) E89CA00000
0160:26F2C4   add  esp,0014 83C414
0160:26F2C7   push 0040 6A40
0160:26F2C9   push 0000 6A00
0160:26F2CB   mov  al,[ebp-0004] 8A45FC
0160:26F2CE   or   al,E0 0CE0
0160:26F2D0   and  eax,000000FF 25FF000000
0160:26F2D5   push eax 50
0160:26F2D6   push dword [00351C78] FF35781C3500
0160:26F2DC   push dword [00351C7C] FF357C1C3500
0160:26F2E2   call 00279360 ($+a079) E879A00000
0160:26F2E7   add  esp,0014 83C414
0160:26F2EA   push 007F 6A7F
0160:26F2EC   push 000B 6A0B
0160:26F2EE   mov  al,[ebp-0004] 8A45FC
0160:26F2F1   or   al,B0 0CB0
0160:26F2F3   and  eax,000000FF 25FF000000
0160:26F2F8   push eax 50
0160:26F2F9   push dword [00351C78] FF35781C3500
0160:26F2FF   push dword [00351C7C] FF357C1C3500
0160:26F305   call 00279360 ($+a056) E856A00000
0160:26F30A   add  esp,0014 83C414
0160:26F30D   push 0000 6A00
0160:26F30F   push 0001 6A01
0160:26F311   mov  al,[ebp-0004] 8A45FC
0160:26F314   or   al,B0 0CB0
0160:26F316   and  eax,000000FF 25FF000000
0160:26F31B   push eax 50
0160:26F31C   push dword [00351C78] FF35781C3500
0160:26F322   push dword [00351C7C] FF357C1C3500
0160:26F328   call 00279360 ($+a033) E833A00000
0160:26F32D   add  esp,0014 83C414
0160:26F330   push 0000 6A00
0160:26F332   push 005B 6A5B
0160:26F334   mov  al,[ebp-0004] 8A45FC
0160:26F337   or   al,B0 0CB0
0160:26F339   and  eax,000000FF 25FF000000
0160:26F33E   push eax 50
0160:26F33F   push dword [00351C78] FF35781C3500
0160:26F345   push dword [00351C7C] FF357C1C3500
0160:26F34B   call 00279360 ($+a010) E810A00000
0160:26F350   add  esp,0014 83C414
0160:26F353   push 0000 6A00
0160:26F355   push 005D 6A5D
0160:26F357   mov  al,[ebp-0004] 8A45FC
0160:26F35A   or   al,B0 0CB0
0160:26F35C   and  eax,000000FF 25FF000000
0160:26F361   push eax 50
0160:26F362   push dword [00351C78] FF35781C3500
0160:26F368   push dword [00351C7C] FF357C1C3500
0160:26F36E   call 00279360 ($+9fed) E8ED9F0000
0160:26F373   add  esp,0014 83C414
0160:26F376   jmp  0026F26D ($-10e) E9F2FEFFFF
0160:26F37B   cmp  byte [ebp+0018],7F 807D187F
0160:26F37F   jnc  0026F397 ($+16) 7316
0160:26F381   push 0000 6A00
0160:26F383   xor  eax,eax 31C0
0160:26F385   mov  al,[ebp+0018] 8A4518
0160:26F388   push eax 50
0160:26F389   push dword [00351C78] FF35781C3500
0160:26F38F   call 00277030 ($+7c9c) E89C7C0000
0160:26F394   add  esp,000C 83C40C
0160:26F397   push dword [00351C78] FF35781C3500
0160:26F39D   call 00276D50 ($+79ae) E8AE790000
0160:26F3A2   add  esp,0004 83C404
0160:26F3A5   mov  dword [002B4800],0064 66C70500482B006400
0160:26F3AE   mov  eax,[ebp+0014] 8B4514
0160:26F3B1   mov  [002B4802],ax 66A302482B00
0160:26F3B7   mov  esp,ebp 89EC
0160:26F3B9   pop  ebp 5D
0160:26F3BA   pop  edi 5F
0160:26F3BB   pop  esi 5E
0160:26F3BC   pop  ebx 5B
0160:26F3BD   ret C3
0160:26F3BE   push ebx 53
0160:26F3BF   mov  eax,[esp+0008] 8B442408
0160:26F3C3   mov  edx,[eax] 8B10
0160:26F3C5   lea  ebx,[edx+0001] 8D5A01
0160:26F3C8   mov  [eax],ebx 8918
0160:26F3CA   mov  bl,[esp+000C] 8A5C240C
0160:26F3CE   mov  [edx],bl 881A
0160:26F3D0   inc  dword [eax+0010] FF4010
0160:26F3D3   pop  ebx 5B
0160:26F3D4   ret C3
0160:26F3D5   push ebx 53
0160:26F3D6   sub  esp,0004 83EC04
0160:26F3D9   lea  eax,[esp+0014] 8D442414
0160:26F3DD   push 0026F3BE 68BEF32600
0160:26F3E2   mov  [esp+0004],eax 89442404
0160:26F3E6   lea  eax,[esp+0004] 8D442404
0160:26F3EA   push eax 50
0160:26F3EB   mov  edx,[esp+0018] 8B542418
0160:26F3EF   push edx 52
0160:26F3F0   mov  ebx,[esp+0018] 8B5C2418
0160:26F3F4   push ebx 53
0160:26F3F5   call 00280B17 ($+1171d) E81D170100
0160:26F3FA   mov  edx,ebx 89DA
0160:26F3FC   add  esp,0010 83C410
0160:26F3FF   mov  byte [edx+eax],00 C6040200
0160:26F403   add  esp,0004 83C404
0160:26F406   pop  ebx 5B
0160:26F407   ret C3
0160:26F408   add  [eax],al 0000
0160:26F40A   add  [eax],al 0000
0160:26F40C   add  [eax],al 0000
0160:26F40E   add  [eax],al 0000
0160:26F410   push ebx 53
0160:26F411   push esi 56
0160:26F412   push edi 57
0160:26F413   push ebp 55
0160:26F414   mov  ebp,esp 89E5
0160:26F416   sub  esp,00000000 81EC00000000
0160:26F41C   cmp  byte [002B47FC],00 803DFC472B0000
0160:26F423   je   0026F42E ($+9) 7409
0160:26F425   cmp  byte [002B47FE],00 803DFE472B0000
0160:26F42C   jne  0026F430 ($+2) 7502
0160:26F42E   jmp  short 0026F43B ($+b) EB0B
0160:26F430   mov  eax,[ebp+0014] 8B4514
0160:26F433   cmp  eax,[002B47F8] 3B05F8472B00
0160:26F439   jne  0026F43D ($+2) 7502
0160:26F43B   jmp  short 0026F443 ($+6) EB06
0160:26F43D   cmp  dword [ebp+0014],007F 837D147F
0160:26F441   jle  0026F445 ($+2) 7E02
0160:26F443   jmp  short 0026F44B ($+6) EB06
0160:26F445   cmp  dword [ebp+0014],0000 837D1400
0160:26F449   jge  0026F44D ($+2) 7D02
0160:26F44B   jmp  short 0026F467 ($+1a) EB1A
0160:26F44D   mov  eax,[ebp+0014] 8B4514
0160:26F450   push eax 50
0160:26F451   push dword [00351C7C] FF357C1C3500
0160:26F457   call 00277670 ($+8214) E814820000
0160:26F45C   add  esp,0008 83C408
0160:26F45F   mov  eax,[ebp+0014] 8B4514
0160:26F462   mov  [002B47F8],eax A3F8472B00
0160:26F467   pop  ebp 5D
0160:26F468   pop  edi 5F
0160:26F469   pop  esi 5E
0160:26F46A   pop  ebx 5B
0160:26F46B   ret C3
0160:26F46C   lea  eax,[eax] 8D442000
0160:26F470   push ebx 53
0160:26F471   push esi 56
0160:26F472   push edi 57
0160:26F473   push ebp 55
0160:26F474   mov  ebp,esp 89E5
0160:26F476   sub  esp,00000000 81EC00000000
0160:26F47C   cmp  byte [002B4798],00 803D98472B0000
0160:26F483   je   0026F48E ($+9) 7409
0160:26F485   cmp  byte [002B479A],00 803D9A472B0000
0160:26F48C   jne  0026F490 ($+2) 7502
0160:26F48E   jmp  short 0026F49B ($+b) EB0B
0160:26F490   mov  eax,[ebp+0014] 8B4514
0160:26F493   cmp  eax,[002B47B0] 3B05B0472B00
0160:26F499   jne  0026F49D ($+2) 7502
0160:26F49B   jmp  short 0026F4A3 ($+6) EB06
0160:26F49D   cmp  dword [ebp+0014],007F 837D147F
0160:26F4A1   jle  0026F4A5 ($+2) 7E02
0160:26F4A3   jmp  short 0026F4AB ($+6) EB06
0160:26F4A5   cmp  dword [ebp+0014],0000 837D1400
0160:26F4A9   jge  0026F4AD ($+2) 7D02
0160:26F4AB   jmp  short 0026F4C7 ($+1a) EB1A
0160:26F4AD   mov  eax,[ebp+0014] 8B4514
0160:26F4B0   push eax 50
0160:26F4B1   push dword [00351B48] FF35481B3500
0160:26F4B7   call 00275650 ($+6194) E894610000
0160:26F4BC   add  esp,0008 83C408
0160:26F4BF   mov  eax,[ebp+0014] 8B4514
0160:26F4C2   mov  [002B47B0],eax A3B0472B00
0160:26F4C7   pop  ebp 5D
0160:26F4C8   pop  edi 5F
0160:26F4C9   pop  esi 5E
0160:26F4CA   pop  ebx 5B
0160:26F4CB   ret C3
0160:26F4CC   push ebp 55
0160:26F4CD   mov  ebp,esp 8BEC
0160:26F4CF   push eax 50
0160:26F4D0   push ebx 53
0160:26F4D1   push ecx 51
0160:26F4D2   push edx 52
0160:26F4D3   push edi 57
0160:26F4D4   push esi 56
0160:26F4D5   mov  dword [002B483A],0001 66C7053A482B000100
0160:26F4DE   mov  dword [002A5004],0000 66C70504502A000000
0160:26F4E7   mov  eax,[ebp+000C] 8B450C
0160:26F4EA   mov  [002B483C],eax A33C482B00
0160:26F4EF   push 0040 6A40
0160:26F4F1   push 00000200 6800020000
0160:26F4F6   push 002B4848 6848482B00
0160:26F4FB   call 0028160D ($+1210d) E80D210100
0160:26F500   add  esp,000C 83C40C
0160:26F503   cmp  eax,0000 83F800
0160:26F506   jle  0026F66B ($+15f) 0F8E5F010000
0160:26F50C   mov  [002B4840],eax A340482B00
0160:26F511   mov  dword [002B482C],0000 66C7052C482B000000
0160:26F51A   mov  dword [002B4836],0000 66C70536482B000000
0160:26F523   push dword [ebp+0010] FF7510
0160:26F526   call 001FC280 ($-732ab) E855CDF8FF
0160:26F52B   add  esp,0004 83C404
0160:26F52E   mov  ah,2C B42C
0160:26F530   int  21 CD21
0160:26F532   mov  ax,0064 66B86400
0160:26F536   mul  edh F6E6
0160:26F538   mov  dh,00 B600
0160:26F53A   add  dx,ax 6603D0
0160:26F53D   mov  [002B4834],dx 66891534482B00
0160:26F544   mov  eax,00000004 B804000000
0160:26F549   push eax 50
0160:26F54A   push 002B4824 6824482B00
0160:26F54F   push dword [002B4840] FF3540482B00
0160:26F555   call 00270023 ($+ac9) E8C90A0000
0160:26F55A   add  esp,000C 83C40C
0160:26F55D   push 0002 6A02
0160:26F55F   push 002B481C 681C482B00
0160:26F564   push dword [002B4840] FF3540482B00
0160:26F56A   call 00270023 ($+ab4) E8B40A0000
0160:26F56F   add  esp,000C 83C40C
0160:26F572   mov  ax,[002B481C] 66A11C482B00
0160:26F578   cmp  ax,AF12 663D12AF
0160:26F57C   jne  0026F585 ($+7) 7507
0160:26F57E   call 0026F736 ($+1b3) E8B3010000
0160:26F583   jmp  short 0026F544 ($-41) EBBF
0160:26F585   cmp  ax,F1FA 663DFAF1
0160:26F589   jnz  0026F63E ($+af) 0F85AF000000
0160:26F58F   mov  ax,[002B481E] 66A11E482B00
0160:26F595   sub  ax,0001 6683E801
0160:26F599   mov  [002B481E],ax 66A31E482B00
0160:26F59F   mov  ax,[002B482C] 66A12C482B00
0160:26F5A5   add  ax,0001 6683C001
0160:26F5A9   mov  [002B482C],ax 66A32C482B00
0160:26F5AF   push dword [ebp+0010] FF7510
0160:26F5B2   call 001FC280 ($-73337) E8C9CCF8FF
0160:26F5B7   add  esp,0004 83C404
0160:26F5BA   call 0026F673 ($+b4) E8B4000000
0160:26F5BF   cmp  dword [002B4844],0000 833D44482B0000
0160:26F5C6   je   0026F5EF ($+27) 7427
0160:26F5C8   cmp  dword [002B487A],0001 66833D7A482B0001
0160:26F5D0   jne  0026F5D7 ($+5) 7505
0160:26F5D2   call 0026F7FC ($+225) E825020000
0160:26F5D7   push ecx 51
0160:26F5D8   push edi 57
0160:26F5D9   push esi 56
0160:26F5DA   mov  edi,000A0000 BF00000A00
0160:26F5DF   mov  esi,[00351628] 8B3528163500
0160:26F5E5   mov  ecx,00003E80 B9803E0000
0160:26F5EA   repe movsd F3A5
0160:26F5EC   pop  esi 5E
0160:26F5ED   pop  edi 5F
0160:26F5EE   pop  ecx 59
0160:26F5EF   call 0026FA7B ($+487) E887040000
0160:26F5F4   mov  ax,[002B481E] 66A11E482B00
0160:26F5FA   cmp  ax,0000 6683F800
0160:26F5FE   jne  0026F602 ($+2) 7502
0160:26F600   jmp  short 0026F63E ($+3c) EB3C
0160:26F602   mov  bl,36 B336
0160:26F604   mov  ax,1200 66B80012
0160:26F608   int  10 CD10
0160:26F60A   cmp  dword [ebp+0008],0000 837D0800
0160:26F60E   je   0026F62E ($+1e) 741E
0160:26F610   cmp  dword [00351746],0000 66833D4617350000
0160:26F618   jne  0026F625 ($+b) 750B
0160:26F61A   cmp  byte [003516E4],00 803DE416350000
0160:26F621   jne  0026F625 ($+2) 7502
0160:26F623   jmp  short 0026F62E ($+9) EB09
0160:26F625   mov  dword [002B483A],0000 66C7053A482B000000
0160:26F62E   cmp  dword [002B483A],0000 66813D3A482B000000
0160:26F637   je   0026F63E ($+5) 7405
0160:26F639   jmp  0026F544 ($-fa) E906FFFFFF
0160:26F63E   push dword [002B4840] FF3540482B00
0160:26F644   call 00281855 ($+1220c) E80C220100
0160:26F649   add  esp,0004 83C404
0160:26F64C   mov  bx,01F4 66BBF401
0160:26F650   cmp  dword [002B483A],0000 66833D3A482B0000
0160:26F658   je   0026F66B ($+11) 7411
0160:26F65A   dec  bx 664B
0160:26F65C   jne  0026F650 ($-e) 75F2
0160:26F65E   dec  dword [002B483A] 66FF0D3A482B00
0160:26F665   jnz  0026F4EF ($-17c) 0F8584FEFFFF
0160:26F66B   pop  esi 5E
0160:26F66C   pop  edi 5F
0160:26F66D   pop  edx 5A
0160:26F66E   pop  ecx 59
0160:26F66F   pop  ebx 5B
0160:26F670   pop  eax 58
0160:26F671   leave C9
0160:26F672   ret C3
0160:26F673   push 0002 6A02
0160:26F675   push 002B4828 6828482B00
0160:26F67A   push dword [002B4840] FF3540482B00
0160:26F680   call 00270023 ($+99e) E89E090000
0160:26F685   add  esp,000C 83C40C
0160:26F688   push 0008 6A08
0160:26F68A   push dword [002BAC38] FF3538AC2B00
0160:26F690   push dword [002B4840] FF3540482B00
0160:26F696   call 00270023 ($+988) E888090000
0160:26F69B   add  esp,000C 83C40C
0160:26F69E   mov  ax,[002B4828] 66A128482B00
0160:26F6A4   cmp  ax,0000 6683F800
0160:26F6A8   jne  0026F6AF ($+5) 7505
0160:26F6AA   jmp  0026F735 ($+86) E986000000
0160:26F6AF   sub  dword [002B4828],0001 66832D28482B0001
0160:26F6B7   push 0004 6A04
0160:26F6B9   push 002B4824 6824482B00
0160:26F6BE   push dword [002B4840] FF3540482B00
0160:26F6C4   call 00270023 ($+95a) E85A090000
0160:26F6C9   add  esp,000C 83C40C
0160:26F6CC   push 0002 6A02
0160:26F6CE   push 002B481C 681C482B00
0160:26F6D3   push dword [002B4840] FF3540482B00
0160:26F6D9   call 00270023 ($+945) E845090000
0160:26F6DE   add  esp,000C 83C40C
0160:26F6E1   mov  ax,[002B481C] 66A11C482B00
0160:26F6E7   cmp  ax,0007 6683F807
0160:26F6EB   jne  0026F6F4 ($+7) 7507
0160:26F6ED   call 0026F871 ($+17f) E87F010000
0160:26F6F2   jmp  short 0026F69E ($-56) EBAA
0160:26F6F4   cmp  ax,000C 6683F80C
0160:26F6F8   jne  0026F701 ($+7) 7507
0160:26F6FA   call 0026F948 ($+249) E849020000
0160:26F6FF   jmp  short 0026F69E ($-63) EB9D
0160:26F701   cmp  ax,0004 6683F804
0160:26F705   jne  0026F70E ($+7) 7507
0160:26F707   call 0026F7D5 ($+c9) E8C9000000
0160:26F70C   jmp  short 0026F69E ($-70) EB90
0160:26F70E   cmp  ax,000F 6683F80F
0160:26F712   jne  0026F71B ($+7) 7507
0160:26F714   call 0026F9EF ($+2d6) E8D6020000
0160:26F719   jmp  short 0026F69E ($-7d) EB83
0160:26F71B   cmp  ax,0010 6683F810
0160:26F71F   jne  0026F72B ($+a) 750A
0160:26F721   call 0026F799 ($+73) E873000000
0160:26F726   jmp  0026F69E ($-8d) E973FFFFFF
0160:26F72B   call 0026F7B7 ($+87) E887000000
0160:26F730   jmp  0026F69E ($-97) E969FFFFFF
0160:26F735   ret C3
0160:26F736   mov  eax,[002B4824] A124482B00
0160:26F73B   sub  eax,0006 83E806
0160:26F73E   push eax 50
0160:26F73F   push dword [002BAC38] FF3538AC2B00
0160:26F745   push dword [002B4840] FF3540482B00
0160:26F74B   call 00270023 ($+8d3) E8D3080000
0160:26F750   add  esp,000C 83C40C
0160:26F753   mov  edi,[002BAC38] 8B3D38AC2B00
0160:26F759   mov  ax,[edi] 668B07
0160:26F75C   mov  [002B481E],ax 66A31E482B00
0160:26F762   add  edi,0002 83C702
0160:26F765   mov  ax,[edi] 668B07
0160:26F768   mov  [002B4820],ax 66A320482B00
0160:26F76E   add  edi,0002 83C702
0160:26F771   mov  ax,[edi] 668B07
0160:26F774   mov  [002B4822],ax 66A322482B00
0160:26F77A   ret C3
0160:26F77B   mov  eax,[002B4824] A124482B00
0160:26F780   sub  eax,0006 83E806
0160:26F783   push eax 50
0160:26F784   push dword [002BAC38] FF3538AC2B00
0160:26F78A   push dword [002B4840] FF3540482B00
0160:26F790   call 00270023 ($+88e) E88E080000
0160:26F795   add  esp,000C 83C40C
0160:26F798   ret C3
0160:26F799   mov  eax,[002B4824] A124482B00
0160:26F79E   sub  eax,0006 83E806
0160:26F7A1   push eax 50
0160:26F7A2   push dword [00351628] FF3528163500
0160:26F7A8   push dword [002B4840] FF3540482B00
0160:26F7AE   call 00270023 ($+870) E870080000
0160:26F7B3   add  esp,000C 83C40C
0160:26F7B6   ret C3
0160:26F7B7   mov  eax,[002B4824] A124482B00
0160:26F7BC   sub  eax,0006 83E806
0160:26F7BF   push eax 50
0160:26F7C0   push dword [002BAC38] FF3538AC2B00
0160:26F7C6   push dword [002B4840] FF3540482B00
0160:26F7CC   call 00270023 ($+852) E852080000
0160:26F7D1   add  esp,000C 83C40C
0160:26F7D4   ret C3
0160:26F7D5   mov  eax,[002B4824] A124482B00
0160:26F7DA   sub  eax,0006 83E806
0160:26F7DD   push eax 50
0160:26F7DE   push dword [002BB3C8] FF35C8B32B00
0160:26F7E4   push dword [002B4840] FF3540482B00
0160:26F7EA   call 00270023 ($+834) E834080000
0160:26F7EF   add  esp,000C 83C40C
0160:26F7F2   mov  dword [002B487A],0001 66C7057A482B000100
0160:26F7FB   ret C3
0160:26F7FC   push esi 56
0160:26F7FD   mov  dword [002B487A],0000 66C7057A482B000000
0160:26F806   cmp  dword [002B483C],0001 833D3C482B0001
0160:26F80D   jne  0026F86F ($+60) 7560
0160:26F80F   mov  edi,[002BB3C8] 8B3DC8B32B00
0160:26F815   sub  bx,bx 662BDB
0160:26F818   mov  ax,[edi] 668B07
0160:26F81B   add  edi,0002 83C702
0160:26F81E   mov  esi,[002BB3B8] 8B35B8B32B00
0160:26F824   push ax 6650
0160:26F826   mov  ecx,00000000 B900000000
0160:26F82B   mov  cl,[edi] 8A0F
0160:26F82D   inc  edi 47
0160:26F82E   add  esi,ecx 03F1
0160:26F830   add  esi,ecx 03F1
0160:26F832   add  esi,ecx 03F1
0160:26F834   mov  dl,[edi] 8A17
0160:26F836   inc  edi 47
0160:26F837   mov  al,[edi] 8A07
0160:26F839   inc  edi 47
0160:26F83A   mov  [esi],al 8806
0160:26F83C   inc  esi 46
0160:26F83D   mov  al,[edi] 8A07
0160:26F83F   inc  edi 47
0160:26F840   mov  [esi],al 8806
0160:26F842   inc  esi 46
0160:26F843   mov  al,[edi] 8A07
0160:26F845   inc  edi 47
0160:26F846   mov  [esi],al 8806
0160:26F848   inc  esi 46
0160:26F849   dec  dl FECA
0160:26F84B   cmp  dl,00 80FA00
0160:26F84E   jne  0026F837 ($-19) 75E7
0160:26F850   pop  ax 6658
0160:26F852   dec  ax 6648
0160:26F854   cmp  ax,0000 6683F800
0160:26F858   jne  0026F824 ($-36) 75CA
0160:26F85A   mov  esi,[002BB3B8] 8B35B8B32B00
0160:26F860   mov  edi,esi 8BFE
0160:26F862   mov  cx,0300 66B90003
0160:26F866   push esi 56
0160:26F867   call 00222A90 ($-4cddc) E82432FBFF
0160:26F86C   add  esp,0004 83C404
0160:26F86F   pop  esi 5E
0160:26F870   ret C3
0160:26F871   push ebp 55
0160:26F872   mov  ebp,esp 8BEC
0160:26F874   add  esp,FFF0 83C4F0
0160:26F877   movzx eax,[002B4820] 0FB70520482B00
0160:26F87E   mov  [ebp-0004],eax 8945FC
0160:26F881   mov  ax,[002B4822] 66A122482B00
0160:26F887   mov  [ebp-0006],ax 668945FA
0160:26F88B   mov  eax,[002B4824] A124482B00
0160:26F890   sub  eax,0006 83E806
0160:26F893   push eax 50
0160:26F894   push dword [002BAC38] FF3538AC2B00
0160:26F89A   push dword [002B4840] FF3540482B00
0160:26F8A0   call 00270023 ($+77e) E87E070000
0160:26F8A5   add  esp,000C 83C40C
0160:26F8A8   mov  edi,[002BAC38] 8B3D38AC2B00
0160:26F8AE   mov  esi,[00351628] 8B3528163500
0160:26F8B4   mov  ax,[edi] 668B07
0160:26F8B7   mov  [ebp-0008],ax 668945F8
0160:26F8BB   add  edi,0002 83C702
0160:26F8BE   mov  ax,[edi] 668B07
0160:26F8C1   add  edi,0002 83C702
0160:26F8C4   mov  [ebp-0010],esi 8975F0
0160:26F8C7   test ah,80 F6C480
0160:26F8CA   je   0026F8E9 ($+1d) 741D
0160:26F8CC   test ah,40 F6C440
0160:26F8CF   jne  0026F8DD ($+c) 750C
0160:26F8D1   push esi 56
0160:26F8D2   add  esi,[ebp-0004] 0375FC
0160:26F8D5   sub  esi,0001 83EE01
0160:26F8D8   mov  [esi],al 8806
0160:26F8DA   pop  esi 5E
0160:26F8DB   jmp  short 0026F8E9 ($+c) EB0C
0160:26F8DD   movsx eax,ax 0FBFC0
0160:26F8E0   neg  eax F7D8
0160:26F8E2   imul dword [ebp-0004] F76DFC
0160:26F8E5   add  esi,eax 03F0
0160:26F8E7   jmp  short 0026F8BE ($-2b) EBD5
0160:26F8E9   mov  [ebp-000A],ax 668945F6
0160:26F8ED   cmp  ax,0000 6683F800
0160:26F8F1   je   0026F934 ($+41) 7441
0160:26F8F3   mov  bl,[edi] 8A1F
0160:26F8F5   inc  edi 47
0160:26F8F6   movzx ebx,bl 0FB6DB
0160:26F8F9   add  esi,ebx 03F3
0160:26F8FB   mov  dl,[edi] 8A17
0160:26F8FD   inc  edi 47
0160:26F8FE   cmp  dl,00 80FA00
0160:26F901   jg   0026F91D ($+1a) 7F1A
0160:26F903   mov  bx,[edi] 668B1F
0160:26F906   add  edi,0002 83C702
0160:26F909   mov  [esi],bx 66891E
0160:26F90C   add  esi,0002 83C602
0160:26F90F   add  dl,01 80C201
0160:26F912   jne  0026F909 ($-b) 75F5
0160:26F914   sub  dword [ebp-000A],0001 66836DF601
0160:26F919   jne  0026F8F3 ($-28) 75D8
0160:26F91B   jmp  short 0026F934 ($+17) EB17
0160:26F91D   mov  bx,[edi] 668B1F
0160:26F920   add  edi,0002 83C702
0160:26F923   mov  [esi],bx 66891E
0160:26F926   add  esi,0002 83C602
0160:26F929   dec  dl FECA
0160:26F92B   jne  0026F91D ($-10) 75F0
0160:26F92D   sub  dword [ebp-000A],0001 66836DF601
0160:26F932   jne  0026F8F3 ($-41) 75BF
0160:26F934   mov  esi,[ebp-0010] 8B75F0
0160:26F937   add  esi,[ebp-0004] 0375FC
0160:26F93A   sub  dword [ebp-0008],0001 66836DF801
0160:26F93F   je   0026F946 ($+5) 7405
0160:26F941   jmp  0026F8BE ($-88) E978FFFFFF
0160:26F946   leave C9
0160:26F947   ret C3
0160:26F948   push ebp 55
0160:26F949   mov  ebp,esp 8BEC
0160:26F94B   add  esp,FFF0 83C4F0
0160:26F94E   push ecx 51
0160:26F94F   movzx eax,[002B4820] 0FB70520482B00
0160:26F956   mov  [ebp-0004],eax 8945FC
0160:26F959   mov  ax,[002B4822] 66A122482B00
0160:26F95F   mov  [ebp-0006],ax 668945FA
0160:26F963   mov  eax,[002B4824] A124482B00
0160:26F968   sub  eax,0006 83E806
0160:26F96B   push eax 50
0160:26F96C   push dword [002BAC38] FF3538AC2B00
0160:26F972   push dword [002B4840] FF3540482B00
0160:26F978   call 00270023 ($+6a6) E8A6060000
0160:26F97D   add  esp,000C 83C40C
0160:26F980   mov  esi,[002BAC38] 8B3538AC2B00
0160:26F986   mov  edi,[00351628] 8B3D28163500
0160:26F98C   mov  ax,[esi] 668B06
0160:26F98F   add  esi,0002 83C602
0160:26F992   imul dword [ebp-0004] F76DFC
0160:26F995   add  edi,eax 03F8
0160:26F997   mov  [ebp-0010],edi 897DF0
0160:26F99A   mov  ax,[esi] 668B06
0160:26F99D   add  esi,0002 83C602
0160:26F9A0   mov  [ebp-0008],ax 668945F8
0160:26F9A4   mov  edi,[ebp-0010] 8B7DF0
0160:26F9A7   movzx ax,[esi] 660FB606
0160:26F9AB   inc  esi 46
0160:26F9AC   mov  [ebp-000A],ax 668945F6
0160:26F9B0   cmp  ax,0000 6683F800
0160:26F9B4   je   0026F9DB ($+25) 7425
0160:26F9B6   movzx eax,[esi] 0FB606
0160:26F9B9   inc  esi 46
0160:26F9BA   add  edi,eax 03F8
0160:26F9BC   mov  al,[esi] 8A06
0160:26F9BE   inc  esi 46
0160:26F9BF   cmp  al,00 3C00
0160:26F9C1   js   0026F9CA ($+7) 7807
0160:26F9C3   movzx ecx,al 0FB6C8
0160:26F9C6   repe movsb F3A4
0160:26F9C8   jmp  short 0026F9D4 ($+a) EB0A
0160:26F9CA   neg  eal F6D8
0160:26F9CC   movzx ecx,al 0FB6C8
0160:26F9CF   mov  al,[esi] 8A06
0160:26F9D1   inc  esi 46
0160:26F9D2   repe stosb F3AA
0160:26F9D4   sub  dword [ebp-000A],0001 66836DF601
0160:26F9D9   jne  0026F9B6 ($-25) 75DB
0160:26F9DB   movzx eax,[002B4820] 0FB70520482B00
0160:26F9E2   add  [ebp-0010],eax 0145F0
0160:26F9E5   sub  dword [ebp-0008],0001 66836DF801
0160:26F9EA   jne  0026F9A4 ($-48) 75B8
0160:26F9EC   pop  ecx 59
0160:26F9ED   leave C9
0160:26F9EE   ret C3
0160:26F9EF   push ebp 55
0160:26F9F0   mov  ebp,esp 8BEC
0160:26F9F2   add  esp,FFFC 83C4FC
0160:26F9F5   mov  ax,[002B4820] 66A120482B00
0160:26F9FB   mov  [ebp-0002],ax 668945FE
0160:26F9FF   mov  ax,[002B4822] 66A122482B00
0160:26FA05   mov  [ebp-0004],ax 668945FC
0160:26FA09   mov  eax,[002B4824] A124482B00
0160:26FA0E   sub  eax,0006 83E806
0160:26FA11   push eax 50
0160:26FA12   push dword [002BAC38] FF3538AC2B00
0160:26FA18   push dword [002B4840] FF3540482B00
0160:26FA1E   call 00270023 ($+600) E800060000
0160:26FA23   add  esp,000C 83C40C
0160:26FA26   mov  esi,[00351628] 8B3528163500
0160:26FA2C   mov  edi,[002BAC38] 8B3D38AC2B00
0160:26FA32   mov  bx,[ebp-0004] 668B5DFC
0160:26FA36   inc  edi 47
0160:26FA37   mov  cx,[ebp-0002] 668B4DFE
0160:26FA3B   mov  dl,[edi] 8A17
0160:26FA3D   inc  edi 47
0160:26FA3E   cmp  dl,00 80FA00
0160:26FA41   jg   0026FA4C ($+9) 7F09
0160:26FA43   mov  ah,FF B4FF
0160:26FA45   mov  al,dl 8AC2
0160:26FA47   add  cx,ax 6603C8
0160:26FA4A   jmp  short 0026FA54 ($+8) EB08
0160:26FA4C   sub  ax,ax 662BC0
0160:26FA4F   mov  al,dl 8AC2
0160:26FA51   sub  cx,ax 662BC8
0160:26FA54   cmp  dl,00 80FA00
0160:26FA57   jg   0026FA65 ($+c) 7F0C
0160:26FA59   mov  dh,[edi] 8A37
0160:26FA5B   inc  edi 47
0160:26FA5C   mov  [esi],dh 8836
0160:26FA5E   inc  esi 46
0160:26FA5F   inc  dl FEC2
0160:26FA61   jne  0026FA59 ($-a) 75F6
0160:26FA63   jmp  short 0026FA6F ($+a) EB0A
0160:26FA65   mov  dh,[edi] 8A37
0160:26FA67   inc  edi 47
0160:26FA68   mov  [esi],dh 8836
0160:26FA6A   inc  esi 46
0160:26FA6B   dec  dl FECA
0160:26FA6D   jne  0026FA68 ($-7) 75F9
0160:26FA6F   cmp  cx,0000 6683F900
0160:26FA73   jne  0026FA3B ($-3a) 75C6
0160:26FA75   dec  bx 664B
0160:26FA77   jne  0026FA36 ($-43) 75BD
0160:26FA79   leave C9
0160:26FA7A   ret C3
0160:26FA7B   cmp  dword [002B4844],0000 833D44482B0000
0160:26FA82   je   0026FACC ($+48) 7448
0160:26FA84   push ax 6650
0160:26FA86   push bx 6653
0160:26FA88   push cx 6651
0160:26FA8A   push dx 6652
0160:26FA8C   mov  ah,2C B42C
0160:26FA8E   int  21 CD21
0160:26FA90   mov  ax,0064 66B86400
0160:26FA94   mul  edh F6E6
0160:26FA96   mov  dh,00 B600
0160:26FA98   add  dx,ax 6603D0
0160:26FA9B   mov  cx,dx 668BCA
0160:26FA9E   sub  dx,[002B4834] 662B1534482B00
0160:26FAA5   cmp  dx,0000 6683FA00
0160:26FAA9   je   0026FA8C ($-1f) 74E1
0160:26FAAB   jg   0026FAB2 ($+5) 7F05
0160:26FAAD   add  dx,1770 6681C27017
0160:26FAB2   movzx edx,dx 0FB7D2
0160:26FAB5   cmp  edx,[002B4844] 3B1544482B00
0160:26FABB   jl   0026FA8C ($-31) 7CCF
0160:26FABD   mov  [002B4834],cx 66890D34482B00
0160:26FAC4   pop  dx 665A
0160:26FAC6   pop  cx 6659
0160:26FAC8   pop  bx 665B
0160:26FACA   pop  ax 6658
0160:26FACC   ret C3
0160:26FACD   add  [eax],al 0000
0160:26FACF   add  [ebx+0056],dl 005356
0160:26FAD2   push edi 57
0160:26FAD3   push ebp 55
0160:26FAD4   mov  ebp,esp 89E5
0160:26FAD6   sub  esp,00000060 81EC60000000
0160:26FADC   cmp  byte [002B47FC],00 803DFC472B0000
0160:26FAE3   jz   0026FC77 ($+18e) 0F848E010000
0160:26FAE9   call 0026F020 ($-ace) E832F5FFFF
0160:26FAEE   push 00000200 6800020000
0160:26FAF3   mov  eax,002A31F0 B8F0312A00
0160:26FAF8   push eax 50
0160:26FAF9   call 00279817 ($+9d19) E8199D0000
0160:26FAFE   add  esp,0008 83C408
0160:26FB01   mov  [ebp-0010],eax 8945F0
0160:26FB04   cmp  dword [ebp-0010],0000 837DF000
0160:26FB08   jz   0026FC77 ($+169) 0F8469010000
0160:26FB0E   push 0002 6A02
0160:26FB10   push 0000 6A00
0160:26FB12   mov  eax,[ebp-0010] 8B45F0
0160:26FB15   push eax 50
0160:26FB16   call 0027991E ($+9e03) E8039E0000
0160:26FB1B   add  esp,000C 83C40C
0160:26FB1E   mov  eax,[ebp-0010] 8B45F0
0160:26FB21   push eax 50
0160:26FB22   call 0027B510 ($+b9e9) E8E9B90000
0160:26FB27   add  esp,0004 83C404
0160:26FB2A   mov  [ebp-0004],eax 8945FC
0160:26FB2D   push 0000 6A00
0160:26FB2F   mov  eax,[ebp-0004] 8B45FC
0160:26FB32   sub  eax,0004 83E804
0160:26FB35   push eax 50
0160:26FB36   mov  eax,[ebp-0010] 8B45F0
0160:26FB39   push eax 50
0160:26FB3A   call 0027991E ($+9ddf) E8DF9D0000
0160:26FB3F   add  esp,000C 83C40C
0160:26FB42   push 0004 6A04
0160:26FB44   lea  eax,[ebp-000C] 8D45F4
0160:26FB47   push eax 50
0160:26FB48   mov  eax,[ebp-0010] 8B45F0
0160:26FB4B   push eax 50
0160:26FB4C   call 002798A7 ($+9d56) E8569D0000
0160:26FB51   add  esp,000C 83C40C
0160:26FB54   push 0000 6A00
0160:26FB56   mov  eax,[ebp-000C] 8B45F4
0160:26FB59   push eax 50
0160:26FB5A   mov  eax,[ebp-0010] 8B45F0
0160:26FB5D   push eax 50
0160:26FB5E   call 0027991E ($+9dbb) E8BB9D0000
0160:26FB63   add  esp,000C 83C40C
0160:26FB66   push 0008 6A08
0160:26FB68   lea  eax,[ebp-001C] 8D45E4
0160:26FB6B   push eax 50
0160:26FB6C   mov  eax,[ebp-0010] 8B45F0
0160:26FB6F   push eax 50
0160:26FB70   call 002798A7 ($+9d32) E8329D0000
0160:26FB75   add  esp,000C 83C40C
0160:26FB78   mov  eax,[ebp+0014] 8B4514
0160:26FB7B   inc  dword [ebp+0014] FF4514
0160:26FB7E   mov  al,[00351C84] A0841C3500
0160:26FB83   mov  [ebp-0060],al 8845A0
0160:26FB86   cmp  byte [ebp-0060],57 807DA057
0160:26FB8A   jc   0026FBC0 ($+34) 7234
0160:26FB8C   cmp  byte [ebp-0060],57 807DA057
0160:26FB90   jbe  0026FBF7 ($+61) 0F8661000000
0160:26FB96   cmp  byte [ebp-0060],67 807DA067
0160:26FB9A   jc   0026FBB8 ($+1c) 721C
0160:26FB9C   cmp  byte [ebp-0060],67 807DA067
0160:26FBA0   jbe  0026FBDC ($+3a) 763A
0160:26FBA2   cmp  byte [ebp-0060],72 807DA072
0160:26FBA6   jc   0026FBB6 ($+e) 720E
0160:26FBA8   cmp  byte [ebp-0060],72 807DA072
0160:26FBAC   jbe  0026FBE5 ($+37) 7637
0160:26FBAE   cmp  byte [ebp-0060],77 807DA077
0160:26FBB2   je   0026FBF7 ($+43) 7443
0160:26FBB4   jmp  short 0026FBFE ($+48) EB48
0160:26FBB6   jmp  short 0026FBFE ($+46) EB46
0160:26FBB8   cmp  byte [ebp-0060],66 807DA066
0160:26FBBC   je   0026FBEE ($+30) 7430
0160:26FBBE   jmp  short 0026FBFE ($+3e) EB3E
0160:26FBC0   cmp  byte [ebp-0060],47 807DA047
0160:26FBC4   jc   0026FBD4 ($+e) 720E
0160:26FBC6   cmp  byte [ebp-0060],47 807DA047
0160:26FBCA   jbe  0026FBDC ($+10) 7610
0160:26FBCC   cmp  byte [ebp-0060],52 807DA052
0160:26FBD0   je   0026FBE5 ($+13) 7413
0160:26FBD2   jmp  short 0026FBFE ($+2a) EB2A
0160:26FBD4   cmp  byte [ebp-0060],46 807DA046
0160:26FBD8   je   0026FBEE ($+14) 7414
0160:26FBDA   jmp  short 0026FBFE ($+22) EB22
0160:26FBDC   mov  dword [ebp-0008],00000000 C745F800000000
0160:26FBE3   jmp  short 0026FBFE ($+19) EB19
0160:26FBE5   mov  dword [ebp-0008],00000001 C745F801000000
0160:26FBEC   jmp  short 0026FBFE ($+10) EB10
0160:26FBEE   mov  dword [ebp-0008],00000002 C745F802000000
0160:26FBF5   jmp  short 0026FBFE ($+7) EB07
0160:26FBF7   mov  dword [ebp-0008],00000003 C745F803000000
0160:26FBFE   mov  edx,[ebp-0008] 8B55F8
0160:26FC01   add  edx,edx 01D2
0160:26FC03   mov  eax,[ebp+0014] 8B4514
0160:26FC06   cmp  ax,[edx+ebp-001C] 663B442AE4
0160:26FC0B   jbe  0026FC22 ($+15) 7615
0160:26FC0D   mov  eax,[ebp-0010] 8B45F0
0160:26FC10   push eax 50
0160:26FC11   call 00279882 ($+9c6c) E86C9C0000
0160:26FC16   add  esp,0004 83C404
0160:26FC19   mov  dword [ebp-0014],00000001 C745EC01000000
0160:26FC20   jmp  short 0026FC7E ($+5c) EB5C
0160:26FC22   mov  eax,[ebp+0014] 8B4514
0160:26FC25   dec  dword [ebp+0014] FF4D14
0160:26FC28   push 0001 6A01
0160:26FC2A   xor  eax,eax 31C0
0160:26FC2C   mov  ax,[ebp+0014] 668B4514
0160:26FC30   shl  eax,06 C1E006
0160:26FC33   push eax 50
0160:26FC34   mov  eax,[ebp-0010] 8B45F0
0160:26FC37   push eax 50
0160:26FC38   call 0027991E ($+9ce1) E8E19C0000
0160:26FC3D   add  esp,000C 83C40C
0160:26FC40   xor  eax,eax 31C0
0160:26FC42   mov  al,[ebp-0008] 8A45F8
0160:26FC45   push eax 50
0160:26FC46   mov  eax,[ebp-0010] 8B45F0
0160:26FC49   push eax 50
0160:26FC4A   call 0026FD00 ($+b1) E8B1000000
0160:26FC4F   add  esp,0008 83C408
0160:26FC52   test al,al 84C0
0160:26FC54   jne  0026FC6B ($+15) 7515
0160:26FC56   mov  eax,[ebp-0010] 8B45F0
0160:26FC59   push eax 50
0160:26FC5A   call 00279882 ($+9c23) E8239C0000
0160:26FC5F   add  esp,0004 83C404
0160:26FC62   mov  dword [ebp-0014],00000001 C745EC01000000
0160:26FC69   jmp  short 0026FC7E ($+13) EB13
0160:26FC6B   mov  eax,[ebp-0010] 8B45F0
0160:26FC6E   push eax 50
0160:26FC6F   call 00279882 ($+9c0e) E80E9C0000
0160:26FC74   add  esp,0004 83C404
0160:26FC77   mov  dword [ebp-0014],00000000 C745EC00000000
0160:26FC7E   mov  eax,[ebp-0014] 8B45EC
0160:26FC81   mov  esp,ebp 89EC
0160:26FC83   pop  ebp 5D
0160:26FC84   pop  edi 5F
0160:26FC85   pop  esi 5E
0160:26FC86   pop  ebx 5B
0160:26FC87   ret C3
0160:26FC88   lea  eax,[eax+00000000] 8D8000000000
0160:26FC8E   mov  edx,edx 8BD2
0160:26FC90   push ebx 53
0160:26FC91   push esi 56
0160:26FC92   push edi 57
0160:26FC93   push ebp 55
0160:26FC94   mov  ebp,esp 89E5
0160:26FC96   sub  esp,00000004 81EC04000000
0160:26FC9C   cmp  dword [002B4808],0000 833D08482B0000
0160:26FCA3   je   0026FCAE ($+9) 7409
0160:26FCA5   cmp  dword [002B4810],0000 833D10482B0000
0160:26FCAC   jne  0026FCB0 ($+2) 7502
0160:26FCAE   jmp  short 0026FCEF ($+3f) EB3F
0160:26FCB0   mov  eax,[002B4808] A108482B00
0160:26FCB5   add  eax,0020 83C020
0160:26FCB8   mov  [ebp-0004],eax 8945FC
0160:26FCBB   mov  dword [002B4804],0000 66C70504482B000000
0160:26FCC4   mov  eax,[ebp-0004] 8B45FC
0160:26FCC7   cmp  eax,[002B480C] 3B050C482B00
0160:26FCCD   jc   0026FCE1 ($+12) 7212
0160:26FCCF   jmp  short 0026FCEF ($+1e) EB1E
0160:26FCD1   mov  eax,[ebp-0004] 8B45FC
0160:26FCD4   add  dword [ebp-0004],0020 8345FC20
0160:26FCD8   inc  dword [002B4804] 66FF0504482B00
0160:26FCDF   jmp  short 0026FCC4 ($-1d) EBE3
0160:26FCE1   mov  edx,[002B4810] 8B1510482B00
0160:26FCE7   mov  eax,[ebp-0004] 8B45FC
0160:26FCEA   add  [eax+0012],edx 015012
0160:26FCED   jmp  short 0026FCD1 ($-1e) EBE2
0160:26FCEF   mov  esp,ebp 89EC
0160:26FCF1   pop  ebp 5D
0160:26FCF2   pop  edi 5F
0160:26FCF3   pop  esi 5E
0160:26FCF4   pop  ebx 5B
0160:26FCF5   ret C3
0160:26FCF6   lea  eax,[eax+00000000] 8D8000000000
0160:26FCFC   lea  edx,[edx] 8D542200
0160:26FD00   push ebx 53
0160:26FD01   push esi 56
0160:26FD02   push edi 57
0160:26FD03   push ebp 55
0160:26FD04   mov  ebp,esp 89E5
0160:26FD06   sub  esp,0000005C 81EC5C000000
0160:26FD0C   mov  eax,[ebp+0014] 8B4514
0160:26FD0F   push eax 50
0160:26FD10   call 0027B510 ($+b7fb) E8FBB70000
0160:26FD15   add  esp,0004 83C404
0160:26FD18   mov  [ebp-0018],eax 8945E8
0160:26FD1B   push 0040 6A40
0160:26FD1D   lea  eax,[ebp-005C] 8D45A4
0160:26FD20   push eax 50
0160:26FD21   mov  eax,[ebp+0014] 8B4514
0160:26FD24   push eax 50
0160:26FD25   call 002798A7 ($+9b7d) E87D9B0000
0160:26FD2A   add  esp,000C 83C40C
0160:26FD2D   xor  eax,eax 31C0
0160:26FD2F   mov  al,[ebp+0018] 8A4518
0160:26FD32   shl  eax,04 C1E004
0160:26FD35   cmp  dword [eax+ebp-0058],FFFF 837C28A8FF
0160:26FD3A   jne  0026FD45 ($+9) 7509
0160:26FD3C   mov  byte [ebp-0008],00 C645F800
0160:26FD40   jmp  00270019 ($+2d4) E9D4020000
0160:26FD45   cmp  dword [002B4810],0000 833D10482B0000
0160:26FD4C   je   0026FD63 ($+15) 7415
0160:26FD4E   push dword [002B4810] FF3510482B00
0160:26FD54   call 00264E80 ($-aed9) E82751FFFF
0160:26FD59   add  esp,0004 83C404
0160:26FD5C   mov  byte [002B47FC],00 C605FC472B0000
0160:26FD63   cmp  dword [002B4808],0000 833D08482B0000
0160:26FD6A   je   0026FD81 ($+15) 7415
0160:26FD6C   push dword [002B4808] FF3508482B00
0160:26FD72   call 00264E80 ($-aef7) E80951FFFF
0160:26FD77   add  esp,0004 83C404
0160:26FD7A   mov  byte [002B47FC],00 C605FC472B0000
0160:26FD81   xor  eax,eax 31C0
0160:26FD83   mov  al,[ebp+0018] 8A4518
0160:26FD86   shl  eax,04 C1E004
0160:26FD89   push dword [eax+ebp-0050] FF7428B0
0160:26FD8D   call 00264CD0 ($-b0c2) E83E4FFFFF
0160:26FD92   add  esp,0004 83C404
0160:26FD95   mov  [002B4810],eax A310482B00
0160:26FD9A   cmp  dword [002B4810],0000 833D10482B0000
0160:26FDA1   jz   00270015 ($+26e) 0F846E020000
0160:26FDA7   xor  eax,eax 31C0
0160:26FDA9   mov  al,[ebp+0018] 8A4518
0160:26FDAC   shl  eax,04 C1E004
0160:26FDAF   push dword [eax+ebp-0054] FF7428AC
0160:26FDB3   call 00264CD0 ($-b0e8) E8184FFFFF
0160:26FDB8   add  esp,0004 83C404
0160:26FDBB   mov  [002B4808],eax A308482B00
0160:26FDC0   cmp  dword [002B4808],0000 833D08482B0000
0160:26FDC7   jz   00270007 ($+23a) 0F843A020000
0160:26FDCD   mov  eax,[002B4810] A110482B00
0160:26FDD2   mov  [ebp-001C],eax 8945E4
0160:26FDD5   mov  eax,[002B4808] A108482B00
0160:26FDDA   mov  [ebp-0010],eax 8945F0
0160:26FDDD   xor  eax,eax 31C0
0160:26FDDF   mov  al,[ebp+0018] 8A4518
0160:26FDE2   shl  eax,04 C1E004
0160:26FDE5   mov  edx,eax 89C2
0160:26FDE7   mov  eax,[002B4808] A108482B00
0160:26FDEC   add  eax,[edx+ebp-0054] 03442AAC
0160:26FDF0   mov  [002B480C],eax A30C482B00
0160:26FDF5   push 0000 6A00
0160:26FDF7   xor  eax,eax 31C0
0160:26FDF9   mov  al,[ebp+0018] 8A4518
0160:26FDFC   shl  eax,04 C1E004
0160:26FDFF   push dword [eax+ebp-0058] FF7428A8
0160:26FE03   mov  eax,[ebp+0014] 8B4514
0160:26FE06   push eax 50
0160:26FE07   call 0027991E ($+9b12) E8129B0000
0160:26FE0C   add  esp,000C 83C40C
0160:26FE0F   push 0008 6A08
0160:26FE11   mov  eax,[ebp-001C] 8B45E4
0160:26FE14   push eax 50
0160:26FE15   mov  eax,[ebp+0014] 8B4514
0160:26FE18   push eax 50
0160:26FE19   call 002798A7 ($+9a89) E8899A0000
0160:26FE1E   add  esp,000C 83C40C
0160:26FE21   mov  eax,[ebp-001C] 8B45E4
0160:26FE24   cmp  byte [eax],52 803852
0160:26FE27   jne  0026FE32 ($+9) 7509
0160:26FE29   mov  eax,[ebp-001C] 8B45E4
0160:26FE2C   cmp  byte [eax+0001],4E 8078014E
0160:26FE30   je   0026FE34 ($+2) 7402
0160:26FE32   jmp  short 0026FE3D ($+9) EB09
0160:26FE34   mov  eax,[ebp-001C] 8B45E4
0160:26FE37   cmp  byte [eax+0002],43 80780243
0160:26FE3B   je   0026FE3F ($+2) 7402
0160:26FE3D   jmp  short 0026FEAE ($+6f) EB6F
0160:26FE3F   xor  eax,eax 31C0
0160:26FE41   mov  edx,[ebp-001C] 8B55E4
0160:26FE44   mov  al,[edx+0004] 8A4204
0160:26FE47   mov  [ebp-000C],eax 8945F4
0160:26FE4A   shl  dword [ebp-000C],08 C165F408
0160:26FE4E   mov  eax,[ebp-001C] 8B45E4
0160:26FE51   mov  al,[eax+0005] 8A4005
0160:26FE54   and  eax,000000FF 25FF000000
0160:26FE59   add  [ebp-000C],eax 0145F4
0160:26FE5C   shl  dword [ebp-000C],08 C165F408
0160:26FE60   mov  eax,[ebp-001C] 8B45E4
0160:26FE63   mov  al,[eax+0006] 8A4006
0160:26FE66   and  eax,000000FF 25FF000000
0160:26FE6B   add  [ebp-000C],eax 0145F4
0160:26FE6E   shl  dword [ebp-000C],08 C165F408
0160:26FE72   mov  eax,[ebp-001C] 8B45E4
0160:26FE75   mov  al,[eax+0007] 8A4007
0160:26FE78   and  eax,000000FF 25FF000000
0160:26FE7D   add  [ebp-000C],eax 0145F4
0160:26FE80   mov  eax,[ebp-000C] 8B45F4
0160:26FE83   sub  eax,0008 83E808
0160:26FE86   push eax 50
0160:26FE87   mov  eax,[002B4810] A110482B00
0160:26FE8C   add  eax,0008 83C008
0160:26FE8F   push eax 50
0160:26FE90   mov  eax,[ebp+0014] 8B4514
0160:26FE93   push eax 50
0160:26FE94   call 002798A7 ($+9a0e) E80E9A0000
0160:26FE99   add  esp,000C 83C40C
0160:26FE9C   mov  eax,[ebp-001C] 8B45E4
0160:26FE9F   push eax 50
0160:26FEA0   mov  eax,[ebp-001C] 8B45E4
0160:26FEA3   push eax 50
0160:26FEA4   call 0027994C ($+9aa3) E8A39A0000
0160:26FEA9   add  esp,0008 83C408
0160:26FEAC   jmp  short 0026FED3 ($+25) EB25
0160:26FEAE   xor  eax,eax 31C0
0160:26FEB0   mov  al,[ebp+0018] 8A4518
0160:26FEB3   shl  eax,04 C1E004
0160:26FEB6   mov  eax,[eax+ebp-0050] 8B4428B0
0160:26FEBA   sub  eax,0008 83E808
0160:26FEBD   push eax 50
0160:26FEBE   mov  eax,[002B4810] A110482B00
0160:26FEC3   add  eax,0008 83C008
0160:26FEC6   push eax 50
0160:26FEC7   mov  eax,[ebp+0014] 8B4514
0160:26FECA   push eax 50
0160:26FECB   call 002798A7 ($+99d7) E8D7990000
0160:26FED0   add  esp,000C 83C40C
0160:26FED3   push 0000 6A00
0160:26FED5   xor  eax,eax 31C0
0160:26FED7   mov  al,[ebp+0018] 8A4518
0160:26FEDA   shl  eax,04 C1E004
0160:26FEDD   push dword [eax+ebp-005C] FF7428A4
0160:26FEE1   mov  eax,[ebp+0014] 8B4514
0160:26FEE4   push eax 50
0160:26FEE5   call 0027991E ($+9a34) E8349A0000
0160:26FEEA   add  esp,000C 83C40C
0160:26FEED   push 0008 6A08
0160:26FEEF   mov  eax,[ebp-0010] 8B45F0
0160:26FEF2   push eax 50
0160:26FEF3   mov  eax,[ebp+0014] 8B4514
0160:26FEF6   push eax 50
0160:26FEF7   call 002798A7 ($+99ab) E8AB990000
0160:26FEFC   add  esp,000C 83C40C
0160:26FEFF   mov  eax,[ebp-0010] 8B45F0
0160:26FF02   cmp  byte [eax],52 803852
0160:26FF05   jne  0026FF10 ($+9) 7509
0160:26FF07   mov  eax,[ebp-0010] 8B45F0
0160:26FF0A   cmp  byte [eax+0001],4E 8078014E
0160:26FF0E   je   0026FF12 ($+2) 7402
0160:26FF10   jmp  short 0026FF1B ($+9) EB09
0160:26FF12   mov  eax,[ebp-0010] 8B45F0
0160:26FF15   cmp  byte [eax+0002],43 80780243
0160:26FF19   je   0026FF1D ($+2) 7402
0160:26FF1B   jmp  short 0026FF8C ($+6f) EB6F
0160:26FF1D   xor  eax,eax 31C0
0160:26FF1F   mov  edx,[ebp-0010] 8B55F0
0160:26FF22   mov  al,[edx+0004] 8A4204
0160:26FF25   mov  [ebp-000C],eax 8945F4
0160:26FF28   shl  dword [ebp-000C],08 C165F408
0160:26FF2C   mov  eax,[ebp-0010] 8B45F0
0160:26FF2F   mov  al,[eax+0005] 8A4005
0160:26FF32   and  eax,000000FF 25FF000000
0160:26FF37   add  [ebp-000C],eax 0145F4
0160:26FF3A   shl  dword [ebp-000C],08 C165F408
0160:26FF3E   mov  eax,[ebp-0010] 8B45F0
0160:26FF41   mov  al,[eax+0006] 8A4006
0160:26FF44   and  eax,000000FF 25FF000000
0160:26FF49   add  [ebp-000C],eax 0145F4
0160:26FF4C   shl  dword [ebp-000C],08 C165F408
0160:26FF50   mov  eax,[ebp-0010] 8B45F0
0160:26FF53   mov  al,[eax+0007] 8A4007
0160:26FF56   and  eax,000000FF 25FF000000
0160:26FF5B   add  [ebp-000C],eax 0145F4
0160:26FF5E   mov  eax,[ebp-000C] 8B45F4
0160:26FF61   sub  eax,0008 83E808
0160:26FF64   push eax 50
0160:26FF65   mov  eax,[002B4808] A108482B00
0160:26FF6A   add  eax,0008 83C008
0160:26FF6D   push eax 50
0160:26FF6E   mov  eax,[ebp+0014] 8B4514
0160:26FF71   push eax 50
0160:26FF72   call 002798A7 ($+9930) E830990000
0160:26FF77   add  esp,000C 83C40C
0160:26FF7A   mov  eax,[ebp-0010] 8B45F0
0160:26FF7D   push eax 50
0160:26FF7E   mov  eax,[ebp-0010] 8B45F0
0160:26FF81   push eax 50
0160:26FF82   call 0027994C ($+99c5) E8C5990000
0160:26FF87   add  esp,0008 83C408
0160:26FF8A   jmp  short 0026FFB1 ($+25) EB25
0160:26FF8C   xor  eax,eax 31C0
0160:26FF8E   mov  al,[ebp+0018] 8A4518
0160:26FF91   shl  eax,04 C1E004
0160:26FF94   mov  eax,[eax+ebp-0054] 8B4428AC
0160:26FF98   sub  eax,0008 83E808
0160:26FF9B   push eax 50
0160:26FF9C   mov  eax,[002B4808] A108482B00
0160:26FFA1   add  eax,0008 83C008
0160:26FFA4   push eax 50
0160:26FFA5   mov  eax,[ebp+0014] 8B4514
0160:26FFA8   push eax 50
0160:26FFA9   call 002798A7 ($+98f9) E8F9980000
0160:26FFAE   add  esp,000C 83C40C
0160:26FFB1   call 0026FC90 ($-326) E8DAFCFFFF
0160:26FFB6   mov  byte [ebp-0004],01 C645FC01
0160:26FFBA   xor  edx,edx 31D2
0160:26FFBC   mov  dl,[ebp-0004] 8A55FC
0160:26FFBF   xor  eax,eax 31C0
0160:26FFC1   mov  ax,[002B4804] 66A104482B00
0160:26FFC7   cmp  edx,eax 39C2
0160:26FFC9   jle  0026FFD5 ($+a) 7E0A
0160:26FFCB   jmp  short 0026FFFA ($+2d) EB2D
0160:26FFCD   mov  al,[ebp-0004] 8A45FC
0160:26FFD0   inc  byte [ebp-0004] FE45FC
0160:26FFD3   jmp  short 0026FFBA ($-1b) EBE5
0160:26FFD5   push 0000 6A00
0160:26FFD7   xor  eax,eax 31C0
0160:26FFD9   mov  al,[ebp-0004] 8A45FC
0160:26FFDC   shl  eax,05 C1E005
0160:26FFDF   mov  edx,[002B4808] 8B1508482B00
0160:26FFE5   add  eax,edx 01D0
0160:26FFE7   push dword [eax+0012] FF7012
0160:26FFEA   push dword [00351C78] FF35781C3500
0160:26FFF0   call 00276C00 ($+6c0b) E80B6C0000
0160:26FFF5   add  esp,000C 83C40C
0160:26FFF8   jmp  short 0026FFCD ($-2d) EBD3
0160:26FFFA   mov  byte [002B47FC],01 C605FC472B0001
0160:270001   mov  byte [ebp-0008],01 C645F801
0160:270005   jmp  short 00270019 ($+12) EB12
0160:270007   push dword [002B4810] FF3510482B00
0160:27000D   call 00264E80 ($-b192) E86E4EFFFF
0160:270012   add  esp,0004 83C404
0160:270015   mov  byte [ebp-0008],00 C645F800
0160:270019   mov  al,[ebp-0008] 8A45F8
0160:27001C   mov  esp,ebp 89EC
0160:27001E   pop  ebp 5D
0160:27001F   pop  edi 5F
0160:270020   pop  esi 5E
0160:270021   pop  ebx 5B
0160:270022   ret C3
0160:270023   push ebx 53
0160:270024   push esi 56
0160:270025   push edi 57
0160:270026   push ebp 55
0160:270027   mov  ebp,esp 89E5
0160:270029   sub  esp,00000008 81EC08000000
0160:27002F   cmp  dword [002B487C],0000 833D7C482B0000
0160:270036   je   00270084 ($+4c) 744C
0160:270038   mov  dword [ebp-0004],00000000 C745FC00000000
0160:27003F   mov  eax,[ebp-0004] 8B45FC
0160:270042   cmp  eax,[ebp+001C] 3B451C
0160:270045   jnc  00270058 ($+11) 7311
0160:270047   mov  eax,[ebp-0004] 8B45FC
0160:27004A   add  eax,[002B4888] 030588482B00
0160:270050   cmp  eax,[002B4884] 3B0584482B00
0160:270056   jc   00270062 ($+a) 720A
0160:270058   jmp  short 00270079 ($+1f) EB1F
0160:27005A   mov  eax,[ebp-0004] 8B45FC
0160:27005D   inc  dword [ebp-0004] FF45FC
0160:270060   jmp  short 0027003F ($-23) EBDD
0160:270062   mov  eax,[002B4880] A180482B00
0160:270067   inc  dword [002B4880] FF0580482B00
0160:27006D   mov  edx,[ebp+0018] 8B5518
0160:270070   inc  dword [ebp+0018] FF4518
0160:270073   mov  al,[eax] 8A00
0160:270075   mov  [edx],al 8802
0160:270077   jmp  short 0027005A ($-1f) EBE1
0160:270079   mov  eax,[ebp+001C] 8B451C
0160:27007C   add  [002B4888],eax 010588482B00
0160:270082   jmp  short 0027009B ($+17) EB17
0160:270084   mov  eax,[ebp+001C] 8B451C
0160:270087   push eax 50
0160:270088   mov  eax,[ebp+0018] 8B4518
0160:27008B   push eax 50
0160:27008C   mov  eax,[ebp+0014] 8B4514
0160:27008F   push eax 50
0160:270090   call 002798A7 ($+9812) E812980000
0160:270095   add  esp,000C 83C40C
0160:270098   mov  [ebp-0004],eax 8945FC
0160:27009B   mov  eax,[ebp-0004] 8B45FC
0160:27009E   mov  [ebp-0008],eax 8945F8
0160:2700A1   mov  eax,[ebp-0008] 8B45F8
0160:2700A4   mov  esp,ebp 89EC
0160:2700A6   pop  ebp 5D
0160:2700A7   pop  edi 5F
0160:2700A8   pop  esi 5E
0160:2700A9   pop  ebx 5B
0160:2700AA   ret C3
0160:2700AB   push ebx 53
0160:2700AC   push esi 56
0160:2700AD   push edi 57
0160:2700AE   push ebp 55
0160:2700AF   mov  ebp,esp 89E5
0160:2700B1   sub  esp,00000008 81EC08000000
0160:2700B7   mov  eax,[ebp+001C] 8B451C
0160:2700BA   push eax 50
0160:2700BB   push dword [002B487C] FF357C482B00
0160:2700C1   mov  eax,[ebp+0014] 8B4514
0160:2700C4   push eax 50
0160:2700C5   call 00281863 ($+11799) E899170100
0160:2700CA   add  esp,000C 83C40C
0160:2700CD   mov  [ebp-0004],eax 8945FC
0160:2700D0   mov  eax,[002B487C] A17C482B00
0160:2700D5   mov  [002B4880],eax A380482B00
0160:2700DA   mov  eax,[ebp-0004] 8B45FC
0160:2700DD   mov  [002B4884],eax A384482B00
0160:2700E2   mov  dword [002B4888],00000000 C70588482B0000000000
0160:2700EC   mov  eax,[ebp-0004] 8B45FC
0160:2700EF   mov  [ebp-0008],eax 8945F8
0160:2700F2   mov  eax,[ebp-0008] 8B45F8
0160:2700F5   mov  esp,ebp 89EC
0160:2700F7   pop  ebp 5D
0160:2700F8   pop  edi 5F
0160:2700F9   pop  esi 5E
0160:2700FA   pop  ebx 5B
0160:2700FB   ret C3
0160:2700FC   add  [eax],al 0000
0160:2700FE   add  [eax],al 0000
0160:270100   push ebx 53
0160:270101   push esi 56
0160:270102   push edi 57
0160:270103   push ebp 55
0160:270104   mov  ebp,esp 89E5
0160:270106   sub  esp,00000018 81EC18000000
0160:27010C   cmp  byte [002B4798],00 803D98472B0000
0160:270113   je   0027011E ($+9) 7409
0160:270115   cmp  byte [002B4799],00 803D99472B0000
0160:27011C   jne  00270120 ($+2) 7502
0160:27011E   jmp  short 00270130 ($+10) EB10
0160:270120   movsx edx,[ebp+0018] 0FBF5518
0160:270124   xor  eax,eax 31C0
0160:270126   mov  ax,[00351B50] 66A1501B3500
0160:27012C   cmp  edx,eax 39C2
0160:27012E   jle  00270132 ($+2) 7E02
0160:270130   jmp  short 00270155 ($+23) EB23
0160:270132   mov  eax,002A3200 B800322A00
0160:270137   push eax 50
0160:270138   movsx eax,[ebp+0018] 0FBF4518
0160:27013C   shl  eax,05 C1E005
0160:27013F   mov  edx,eax 89C2
0160:270141   mov  eax,[002B47A0] A1A0472B00
0160:270146   add  eax,edx 01D0
0160:270148   push eax 50
0160:270149   call 00279F5D ($+9e0f) E80F9E0000
0160:27014E   add  esp,0008 83C408
0160:270151   test eax,eax 85C0
0160:270153   jne  0027015A ($+5) 7505
0160:270155   jmp  00270408 ($+2ae) E9AE020000
0160:27015A   mov  byte [ebp-0018],00 C645E800
0160:27015E   mov  al,[ebp+002C] 8A452C
0160:270161   mov  [ebp-0014],al 8845EC
0160:270164   cmp  byte [ebp-0014],02 807DEC02
0160:270168   jc   0027017F ($+15) 7215
0160:27016A   cmp  byte [ebp-0014],02 807DEC02
0160:27016E   jbe  002701D5 ($+65) 7665
0160:270170   cmp  byte [ebp-0014],03 807DEC03
0160:270174   jz   0027027A ($+100) 0F8400010000
0160:27017A   jmp  00270317 ($+198) E998010000
0160:27017F   cmp  byte [ebp-0014],01 807DEC01
0160:270183   jnz  00270317 ($+18e) 0F858E010000
0160:270189   mov  dword [ebp-000C],00000000 C745F400000000
0160:270190   mov  dword [ebp-0010],00351750 C745F050173500
0160:270197   mov  eax,[ebp-0010] 8B45F0
0160:27019A   cmp  eax,[00351B4C] 3B054C1B3500
0160:2701A0   jc   002701AD ($+b) 720B
0160:2701A2   jmp  short 002701D0 ($+2c) EB2C
0160:2701A4   mov  eax,[ebp-0010] 8B45F0
0160:2701A7   add  dword [ebp-0010],0017 8345F017
0160:2701AB   jmp  short 00270197 ($-16) EBEA
0160:2701AD   mov  eax,[ebp-0010] 8B45F0
0160:2701B0   push dword [eax] FF30
0160:2701B2   call 00275010 ($+4e59) E8594E0000
0160:2701B7   add  esp,0004 83C404
0160:2701BA   cmp  eax,0002 83F802
0160:2701BD   jne  002701CE ($+f) 750F
0160:2701BF   mov  eax,[ebp-0010] 8B45F0
0160:2701C2   mov  [ebp-000C],eax 8945F4
0160:2701C5   mov  dword [ebp-0008],00000000 C745F800000000
0160:2701CC   jmp  short 002701D0 ($+2) EB02
0160:2701CE   jmp  short 002701A4 ($-2c) EBD4
0160:2701D0   jmp  00270317 ($+142) E942010000
0160:2701D5   mov  dword [ebp-0008],00000000 C745F800000000
0160:2701DC   mov  dword [ebp-0010],00351750 C745F050173500
0160:2701E3   mov  eax,[ebp-0010] 8B45F0
0160:2701E6   cmp  eax,[00351B4C] 3B054C1B3500
0160:2701EC   jc   002701F9 ($+b) 720B
0160:2701EE   jmp  short 0027022F ($+3f) EB3F
0160:2701F0   mov  eax,[ebp-0010] 8B45F0
0160:2701F3   add  dword [ebp-0010],0017 8345F017
0160:2701F7   jmp  short 002701E3 ($-16) EBEA
0160:2701F9   mov  eax,[ebp-0010] 8B45F0
0160:2701FC   mov  eax,[eax+000E] 8B400E
0160:2701FF   cmp  eax,[ebp+0014] 3B4514
0160:270202   jne  00270211 ($+d) 750D
0160:270204   mov  eax,[ebp-0010] 8B45F0
0160:270207   mov  ax,[eax+0012] 668B4012
0160:27020B   cmp  ax,[ebp+0018] 663B4518
0160:27020F   je   00270213 ($+2) 7402
0160:270211   jmp  short 0027022D ($+1a) EB1A
0160:270213   mov  eax,[ebp-0010] 8B45F0
0160:270216   push dword [eax] FF30
0160:270218   call 00275010 ($+4df3) E8F34D0000
0160:27021D   add  esp,0004 83C404
0160:270220   cmp  eax,0002 83F802
0160:270223   je   0027022D ($+8) 7408
0160:270225   mov  eax,[ebp-0010] 8B45F0
0160:270228   mov  [ebp-0008],eax 8945F8
0160:27022B   jmp  short 0027022F ($+2) EB02
0160:27022D   jmp  short 002701F0 ($-3f) EBC1
0160:27022F   cmp  dword [ebp-0008],0000 837DF800
0160:270233   jne  00270275 ($+40) 7540
0160:270235   mov  dword [ebp-000C],00000000 C745F400000000
0160:27023C   mov  dword [ebp-0010],00351750 C745F050173500
0160:270243   mov  eax,[ebp-0010] 8B45F0
0160:270246   cmp  eax,[00351B4C] 3B054C1B3500
0160:27024C   jc   00270259 ($+b) 720B
0160:27024E   jmp  short 00270275 ($+25) EB25
0160:270250   mov  eax,[ebp-0010] 8B45F0
0160:270253   add  dword [ebp-0010],0017 8345F017
0160:270257   jmp  short 00270243 ($-16) EBEA
0160:270259   mov  eax,[ebp-0010] 8B45F0
0160:27025C   push dword [eax] FF30
0160:27025E   call 00275010 ($+4dad) E8AD4D0000
0160:270263   add  esp,0004 83C404
0160:270266   cmp  eax,0002 83F802
0160:270269   jne  00270273 ($+8) 7508
0160:27026B   mov  eax,[ebp-0010] 8B45F0
0160:27026E   mov  [ebp-000C],eax 8945F4
0160:270271   jmp  short 00270275 ($+2) EB02
0160:270273   jmp  short 00270250 ($-25) EBDB
0160:270275   jmp  00270317 ($+9d) E99D000000
0160:27027A   mov  byte [ebp-0018],00 C645E800
0160:27027E   mov  dword [ebp-0010],00351750 C745F050173500
0160:270285   mov  eax,[ebp-0010] 8B45F0
0160:270288   cmp  eax,[00351B4C] 3B054C1B3500
0160:27028E   jc   0027029B ($+b) 720B
0160:270290   jmp  short 002702CA ($+38) EB38
0160:270292   mov  eax,[ebp-0010] 8B45F0
0160:270295   add  dword [ebp-0010],0017 8345F017
0160:270299   jmp  short 00270285 ($-16) EBEA
0160:27029B   mov  eax,[ebp-0010] 8B45F0
0160:27029E   mov  eax,[eax+000E] 8B400E
0160:2702A1   cmp  eax,[ebp+0014] 3B4514
0160:2702A4   jne  002702B3 ($+d) 750D
0160:2702A6   mov  eax,[ebp-0010] 8B45F0
0160:2702A9   mov  ax,[eax+0012] 668B4012
0160:2702AD   cmp  ax,[ebp+0018] 663B4518
0160:2702B1   je   002702B5 ($+2) 7402
0160:2702B3   jmp  short 002702C8 ($+13) EB13
0160:2702B5   mov  eax,[ebp-0010] 8B45F0
0160:2702B8   mov  [ebp-000C],eax 8945F4
0160:2702BB   mov  dword [ebp-0008],00000000 C745F800000000
0160:2702C2   mov  byte [ebp-0018],01 C645E801
0160:2702C6   jmp  short 002702CA ($+2) EB02
0160:2702C8   jmp  short 00270292 ($-38) EBC8
0160:2702CA   cmp  byte [ebp-0018],00 807DE800
0160:2702CE   jne  00270317 ($+47) 7547
0160:2702D0   mov  dword [ebp-000C],00000000 C745F400000000
0160:2702D7   mov  dword [ebp-0010],00351750 C745F050173500
0160:2702DE   mov  eax,[ebp-0010] 8B45F0
0160:2702E1   cmp  eax,[00351B4C] 3B054C1B3500
0160:2702E7   jc   002702F4 ($+b) 720B
0160:2702E9   jmp  short 00270317 ($+2c) EB2C
0160:2702EB   mov  eax,[ebp-0010] 8B45F0
0160:2702EE   add  dword [ebp-0010],0017 8345F017
0160:2702F2   jmp  short 002702DE ($-16) EBEA
0160:2702F4   mov  eax,[ebp-0010] 8B45F0
0160:2702F7   push dword [eax] FF30
0160:2702F9   call 00275010 ($+4d12) E8124D0000
0160:2702FE   add  esp,0004 83C404
0160:270301   cmp  eax,0002 83F802
0160:270304   jne  00270315 ($+f) 750F
0160:270306   mov  eax,[ebp-0010] 8B45F0
0160:270309   mov  [ebp-000C],eax 8945F4
0160:27030C   mov  dword [ebp-0008],00000000 C745F800000000
0160:270313   jmp  short 00270317 ($+2) EB02
0160:270315   jmp  short 002702EB ($-2c) EBD4
0160:270317   cmp  dword [ebp-000C],0000 837DF400
0160:27031B   je   00270323 ($+6) 7406
0160:27031D   cmp  dword [ebp-0008],0000 837DF800
0160:270321   je   00270328 ($+5) 7405
0160:270323   jmp  00270408 ($+e0) E9E0000000
0160:270328   cmp  byte [ebp-0018],00 807DE800
0160:27032C   jne  0027035C ($+2e) 752E
0160:27032E   mov  eax,[ebp-000C] 8B45F4
0160:270331   push dword [eax] FF30
0160:270333   call 00274830 ($+44f8) E8F8440000
0160:270338   add  esp,0004 83C404
0160:27033B   push 0001 6A01
0160:27033D   movsx eax,[ebp+0018] 0FBF4518
0160:270341   shl  eax,05 C1E005
0160:270344   mov  edx,[002B47A0] 8B15A0472B00
0160:27034A   add  eax,edx 01D0
0160:27034C   push dword [eax+0012] FF7012
0160:27034F   mov  eax,[ebp-000C] 8B45F4
0160:270352   push dword [eax] FF30
0160:270354   call 002748C0 ($+4567) E867450000
0160:270359   add  esp,000C 83C40C
0160:27035C   mov  eax,[ebp+001C] 8B451C
0160:27035F   push eax 50
0160:270360   mov  eax,[ebp-000C] 8B45F4
0160:270363   push dword [eax] FF30
0160:270365   call 00274E30 ($+4ac6) E8C64A0000
0160:27036A   add  esp,0008 83C408
0160:27036D   mov  eax,[ebp+0020] 8B4520
0160:270370   push eax 50
0160:270371   mov  eax,[ebp-000C] 8B45F4
0160:270374   push dword [eax] FF30
0160:270376   call 00274ED0 ($+4b55) E8554B0000
0160:27037B   add  esp,0008 83C408
0160:27037E   xor  eax,eax 31C0
0160:270380   mov  ax,[ebp+0024] 668B4524
0160:270384   imul eax,[002B47BC] 0FAF05BC472B00
0160:27038B   mov  ebx,00000064 BB64000000
0160:270390   xor  edx,edx 31D2
0160:270392   div  ebx F7F3
0160:270394   push eax 50
0160:270395   mov  eax,[ebp-000C] 8B45F4
0160:270398   push dword [eax] FF30
0160:27039A   call 00274D90 ($+49f1) E8F1490000
0160:27039F   add  esp,0008 83C408
0160:2703A2   movsx eax,[ebp+0028] 0FBE4528
0160:2703A6   inc  eax 40
0160:2703A7   push eax 50
0160:2703A8   mov  eax,[ebp-000C] 8B45F4
0160:2703AB   push dword [eax] FF30
0160:2703AD   call 00274F70 ($+4bbe) E8BE4B0000
0160:2703B2   add  esp,0008 83C408
0160:2703B5   mov  eax,[ebp-000C] 8B45F4
0160:2703B8   push dword [eax] FF30
0160:2703BA   call 00274B50 ($+4791) E891470000
0160:2703BF   add  esp,0004 83C404
0160:2703C2   mov  eax,[ebp+0014] 8B4514
0160:2703C5   mov  edx,[ebp-000C] 8B55F4
0160:2703C8   mov  [edx+000E],eax 89420E
0160:2703CB   mov  eax,[ebp+0018] 8B4518
0160:2703CE   mov  edx,[ebp-000C] 8B55F4
0160:2703D1   mov  [edx+0012],ax 66894212
0160:2703D5   mov  eax,[ebp+001C] 8B451C
0160:2703D8   mov  edx,[ebp-000C] 8B55F4
0160:2703DB   mov  [edx+0004],eax 894204
0160:2703DE   mov  eax,[ebp+0020] 8B4520
0160:2703E1   mov  edx,[ebp-000C] 8B55F4
0160:2703E4   mov  [edx+000A],ax 6689420A
0160:2703E8   mov  eax,[ebp+0024] 8B4524
0160:2703EB   mov  edx,[ebp-000C] 8B55F4
0160:2703EE   mov  [edx+0008],ax 66894208
0160:2703F2   mov  eax,[ebp-000C] 8B45F4
0160:2703F5   mov  byte [eax+0014],00 C6401400
0160:2703F9   mov  eax,[ebp-000C] 8B45F4
0160:2703FC   mov  byte [eax+0015],00 C6401500
0160:270400   mov  eax,[ebp-000C] 8B45F4
0160:270403   mov  [ebp-0004],eax 8945FC
0160:270406   jmp  short 0027040F ($+7) EB07
0160:270408   mov  dword [ebp-0004],00000000 C745FC00000000
0160:27040F   mov  eax,[ebp-0004] 8B45FC
0160:270412   mov  esp,ebp 89EC
0160:270414   pop  ebp 5D
0160:270415   pop  edi 5F
0160:270416   pop  esi 5E
0160:270417   pop  ebx 5B
0160:270418   ret C3
0160:270419   add  [eax],al 0000
0160:27041B   add  [eax],al 0000
0160:27041D   add  [eax],al 0000
0160:27041F   add  [ebx+0056],dl 005356
0160:270422   push edi 57
0160:270423   push ebp 55
0160:270424   mov  ebp,esp 89E5
0160:270426   sub  esp,00000004 81EC04000000
0160:27042C   cmp  byte [002B4798],00 803D98472B0000
0160:270433   je   0027043E ($+9) 7409
0160:270435   cmp  byte [002B4799],00 803D99472B0000
0160:27043C   jne  00270440 ($+2) 7502
0160:27043E   jmp  short 0027049A ($+5a) EB5A
0160:270440   mov  dword [ebp-0004],00351750 C745FC50173500
0160:270447   mov  eax,[ebp-0004] 8B45FC
0160:27044A   cmp  eax,[00351B4C] 3B054C1B3500
0160:270450   jc   0027045D ($+b) 720B
0160:270452   jmp  short 0027049A ($+46) EB46
0160:270454   mov  eax,[ebp-0004] 8B45FC
0160:270457   add  dword [ebp-0004],0017 8345FC17
0160:27045B   jmp  short 00270447 ($-16) EBEA
0160:27045D   mov  eax,[ebp-0004] 8B45FC
0160:270460   mov  eax,[eax+000E] 8B400E
0160:270463   cmp  eax,[ebp+0014] 3B4514
0160:270466   jne  00270475 ($+d) 750D
0160:270468   mov  eax,[ebp-0004] 8B45FC
0160:27046B   mov  ax,[eax+0012] 668B4012
0160:27046F   cmp  ax,[ebp+0018] 663B4518
0160:270473   je   00270477 ($+2) 7402
0160:270475   jmp  short 00270498 ($+21) EB21
0160:270477   mov  eax,[ebp-0004] 8B45FC
0160:27047A   push dword [eax] FF30
0160:27047C   call 00275010 ($+4b8f) E88F4B0000
0160:270481   add  esp,0004 83C404
0160:270484   cmp  eax,0002 83F802
0160:270487   je   00270498 ($+f) 740F
0160:270489   mov  eax,[ebp-0004] 8B45FC
0160:27048C   push dword [eax] FF30
0160:27048E   call 00274D00 ($+486d) E86D480000
0160:270493   add  esp,0004 83C404
0160:270496   jmp  short 0027049A ($+2) EB02
0160:270498   jmp  short 00270454 ($-46) EBBA
0160:27049A   mov  esp,ebp 89EC
0160:27049C   pop  ebp 5D
0160:27049D   pop  edi 5F
0160:27049E   pop  esi 5E
0160:27049F   pop  ebx 5B
0160:2704A0   ret C3
0160:2704A1   add  [eax],al 0000
0160:2704A3   add  [eax],al 0000
0160:2704A5   add  [eax],al 0000
0160:2704A7   add  [eax],al 0000
0160:2704A9   add  [eax],al 0000
0160:2704AB   add  [eax],al 0000
0160:2704AD   add  [eax],al 0000
0160:2704AF   add  [esi+0057],dl 005657
0160:2704B2   push ebp 55
0160:2704B3   mov  ebp,esp 89E5
0160:2704B5   sub  esp,0000000C 81EC0C000000
0160:2704BB   cmp  byte [002B4798],00 803D98472B0000
0160:2704C2   je   002704CD ($+9) 7409
0160:2704C4   cmp  byte [002B4799],00 803D99472B0000
0160:2704CB   jne  002704D2 ($+5) 7505
0160:2704CD   jmp  002706B3 ($+1e1) E9E1010000
0160:2704D2   mov  byte [002B488C],00 C6058C482B0000
0160:2704D9   mov  dword [ebp-0004],00351750 C745FC50173500
0160:2704E0   mov  eax,[ebp-0004] 8B45FC
0160:2704E3   cmp  eax,[00351B4C] 3B054C1B3500
0160:2704E9   jc   002704F9 ($+e) 720E
0160:2704EB   jmp  00270693 ($+1a3) E9A3010000
0160:2704F0   mov  eax,[ebp-0004] 8B45FC
0160:2704F3   add  dword [ebp-0004],0017 8345FC17
0160:2704F7   jmp  short 002704E0 ($-19) EBE7
0160:2704F9   mov  eax,[ebp-0004] 8B45FC
0160:2704FC   mov  al,[eax+0014] 8A4014
0160:2704FF   mov  [ebp-000C],al 8845F4
0160:270502   cmp  byte [ebp-000C],01 807DF401
0160:270506   jc   0027051D ($+15) 7215
0160:270508   cmp  byte [ebp-000C],01 807DF401
0160:27050C   jbe  00270522 ($+14) 7614
0160:27050E   cmp  byte [ebp-000C],02 807DF402
0160:270512   jz   002705D1 ($+b9) 0F84B9000000
0160:270518   jmp  0027068E ($+171) E971010000
0160:27051D   jmp  0027068E ($+16c) E96C010000
0160:270522   mov  byte [002B488C],01 C6058C482B0001
0160:270529   mov  eax,[ebp-0004] 8B45FC
0160:27052C   push dword [eax] FF30
0160:27052E   call 00275010 ($+4add) E8DD4A0000
0160:270533   add  esp,0004 83C404
0160:270536   cmp  eax,0004 83F804
0160:270539   jnz  002705BE ($+7f) 0F857F000000
0160:27053F   mov  eax,[ebp-0004] 8B45FC
0160:270542   cmp  dword [eax+000C],007F 6683780C7F
0160:270547   jbe  00270552 ($+9) 7609
0160:270549   mov  eax,[ebp-0004] 8B45FC
0160:27054C   mov  dword [eax+000C],007F 66C7400C7F00
0160:270552   mov  eax,[ebp-0004] 8B45FC
0160:270555   xor  edx,edx 31D2
0160:270557   mov  dx,[eax+000C] 668B500C
0160:27055B   mov  eax,[ebp-0004] 8B45FC
0160:27055E   cmp  edx,[eax+0004] 3B5004
0160:270561   jg   00270587 ($+24) 7F24
0160:270563   mov  eax,[ebp-0004] 8B45FC
0160:270566   mov  byte [eax+0014],00 C6401400
0160:27056A   mov  eax,[ebp-0004] 8B45FC
0160:27056D   cmp  byte [eax+0015],00 80781500
0160:270571   je   00270587 ($+14) 7414
0160:270573   mov  eax,[ebp-0004] 8B45FC
0160:270576   push dword [eax] FF30
0160:270578   call 00274D00 ($+4783) E883470000
0160:27057D   add  esp,0004 83C404
0160:270580   mov  eax,[ebp-0004] 8B45FC
0160:270583   mov  byte [eax+0015],00 C6401500
0160:270587   mov  eax,[ebp-0004] 8B45FC
0160:27058A   cmp  byte [eax+0014],01 80781401
0160:27058E   jne  002705BC ($+2c) 752C
0160:270590   mov  eax,[ebp-0004] 8B45FC
0160:270593   inc  dword [eax+0004] FF4004
0160:270596   mov  eax,[ebp-0004] 8B45FC
0160:270599   cmp  dword [eax+0004],007F 8378047F
0160:27059D   jl   002705A9 ($+a) 7C0A
0160:27059F   mov  eax,[ebp-0004] 8B45FC
0160:2705A2   mov  dword [eax+0004],0000007F C740047F000000
0160:2705A9   mov  eax,[ebp-0004] 8B45FC
0160:2705AC   push dword [eax+0004] FF7004
0160:2705AF   mov  eax,[ebp-0004] 8B45FC
0160:2705B2   push dword [eax] FF30
0160:2705B4   call 00274E30 ($+4877) E877480000
0160:2705B9   add  esp,0008 83C408
0160:2705BC   jmp  short 002705CC ($+e) EB0E
0160:2705BE   mov  eax,[ebp-0004] 8B45FC
0160:2705C1   mov  byte [eax+0014],00 C6401400
0160:2705C5   mov  eax,[ebp-0004] 8B45FC
0160:2705C8   mov  byte [eax+0015],00 C6401500
0160:2705CC   jmp  0027068E ($+bd) E9BD000000
0160:2705D1   mov  byte [002B488C],01 C6058C482B0001
0160:2705D8   mov  eax,[ebp-0004] 8B45FC
0160:2705DB   push dword [eax] FF30
0160:2705DD   call 00275010 ($+4a2e) E82E4A0000
0160:2705E2   add  esp,0004 83C404
0160:2705E5   cmp  eax,0004 83F804
0160:2705E8   jnz  00270680 ($+92) 0F8592000000
0160:2705EE   mov  eax,[ebp-0004] 8B45FC
0160:2705F1   xor  edx,edx 31D2
0160:2705F3   mov  dx,[eax+000C] 668B500C
0160:2705F7   mov  eax,[ebp-0004] 8B45FC
0160:2705FA   cmp  edx,[eax+0004] 3B5004
0160:2705FD   jl   00270623 ($+24) 7C24
0160:2705FF   mov  eax,[ebp-0004] 8B45FC
0160:270602   mov  byte [eax+0014],00 C6401400
0160:270606   mov  eax,[ebp-0004] 8B45FC
0160:270609   cmp  byte [eax+0015],00 80781500
0160:27060D   je   00270623 ($+14) 7414
0160:27060F   mov  eax,[ebp-0004] 8B45FC
0160:270612   push dword [eax] FF30
0160:270614   call 00274D00 ($+46e7) E8E7460000
0160:270619   add  esp,0004 83C404
0160:27061C   mov  eax,[ebp-0004] 8B45FC
0160:27061F   mov  byte [eax+0015],00 C6401500
0160:270623   mov  eax,[ebp-0004] 8B45FC
0160:270626   cmp  byte [eax+0014],02 80781402
0160:27062A   jne  0027067E ($+52) 7552
0160:27062C   mov  eax,[ebp-0004] 8B45FC
0160:27062F   dec  dword [eax+0004] FF4804
0160:270632   mov  eax,[ebp-0004] 8B45FC
0160:270635   cmp  dword [eax+0004],0000 83780400
0160:270639   jge  0027066B ($+30) 7D30
0160:27063B   mov  eax,[ebp-0004] 8B45FC
0160:27063E   mov  dword [eax+0004],00000000 C7400400000000
0160:270645   mov  eax,[ebp-0004] 8B45FC
0160:270648   mov  byte [eax+0014],00 C6401400
0160:27064C   mov  eax,[ebp-0004] 8B45FC
0160:27064F   cmp  byte [eax+0015],00 80781500
0160:270653   je   00270669 ($+14) 7414
0160:270655   mov  eax,[ebp-0004] 8B45FC
0160:270658   push dword [eax] FF30
0160:27065A   call 00274D00 ($+46a1) E8A1460000
0160:27065F   add  esp,0004 83C404
0160:270662   mov  eax,[ebp-0004] 8B45FC
0160:270665   mov  byte [eax+0015],00 C6401500
0160:270669   jmp  short 0027067E ($+13) EB13
0160:27066B   mov  eax,[ebp-0004] 8B45FC
0160:27066E   push dword [eax+0004] FF7004
0160:270671   mov  eax,[ebp-0004] 8B45FC
0160:270674   push dword [eax] FF30
0160:270676   call 00274E30 ($+47b5) E8B5470000
0160:27067B   add  esp,0008 83C408
0160:27067E   jmp  short 0027068E ($+e) EB0E
0160:270680   mov  eax,[ebp-0004] 8B45FC
0160:270683   mov  byte [eax+0014],00 C6401400
0160:270687   mov  eax,[ebp-0004] 8B45FC
0160:27068A   mov  byte [eax+0015],00 C6401500
0160:27068E   jmp  002704F0 ($-1a3) E95DFEFFFF
0160:270693   cmp  byte [002B488C],00 803D8C482B0000
0160:27069A   jne  002706B1 ($+15) 7515
0160:27069C   push dword [00351CA0] FF35A01C3500
0160:2706A2   call 00273DC0 ($+3719) E819370000
0160:2706A7   add  esp,0004 83C404
0160:2706AA   mov  byte [002B488D],00 C6058D482B0000
0160:2706B1   jmp  short 002706F5 ($+42) EB42
0160:2706B3   push dword [00351CA0] FF35A01C3500
0160:2706B9   call 00273DC0 ($+3702) E802370000
0160:2706BE   add  esp,0004 83C404
0160:2706C1   mov  byte [002B488D],00 C6058D482B0000
0160:2706C8   mov  dword [ebp-0004],00351750 C745FC50173500
0160:2706CF   mov  eax,[ebp-0004] 8B45FC
0160:2706D2   cmp  eax,[00351B4C] 3B054C1B3500
0160:2706D8   jc   002706E5 ($+b) 720B
0160:2706DA   jmp  short 002706F5 ($+19) EB19
0160:2706DC   mov  eax,[ebp-0004] 8B45FC
0160:2706DF   add  dword [ebp-0004],0017 8345FC17
0160:2706E3   jmp  short 002706CF ($-16) EBEA
0160:2706E5   mov  eax,[ebp-0004] 8B45FC
0160:2706E8   mov  byte [eax+0014],00 C6401400
0160:2706EC   mov  eax,[ebp-0004] 8B45FC
0160:2706EF   mov  byte [eax+0015],00 C6401500
0160:2706F3   jmp  short 002706DC ($-19) EBE7
0160:2706F5   mov  dword [ebp-0008],00000000 C745F800000000
0160:2706FC   mov  eax,[ebp-0008] 8B45F8
0160:2706FF   mov  esp,ebp 89EC
0160:270701   pop  ebp 5D
0160:270702   pop  edi 5F
0160:270703   pop  esi 5E
0160:270704   ret C3
0160:270705   lea  eax,[eax+00000000] 8D8000000000
0160:27070B   lea  edx,[edx] 8D5200
0160:27070E   mov  ebx,ebx 8BDB
0160:270710   push ebx 53
0160:270711   push esi 56
0160:270712   push edi 57
0160:270713   push ebp 55
0160:270714   mov  ebp,esp 89E5
0160:270716   sub  esp,00000004 81EC04000000
0160:27071C   cmp  byte [002B4798],00 803D98472B0000
0160:270723   je   0027072E ($+9) 7409
0160:270725   cmp  byte [002B4799],00 803D99472B0000
0160:27072C   jne  00270730 ($+2) 7502
0160:27072E   jmp  short 00270740 ($+10) EB10
0160:270730   movsx edx,[ebp+0018] 0FBF5518
0160:270734   xor  eax,eax 31C0
0160:270736   mov  ax,[00351B50] 66A1501B3500
0160:27073C   cmp  edx,eax 39C2
0160:27073E   jle  00270745 ($+5) 7E05
0160:270740   jmp  00270845 ($+100) E900010000
0160:270745   mov  dword [ebp-0004],00351750 C745FC50173500
0160:27074C   mov  eax,[ebp-0004] 8B45FC
0160:27074F   cmp  eax,[00351B4C] 3B054C1B3500
0160:270755   jc   00270765 ($+e) 720E
0160:270757   jmp  00270845 ($+e9) E9E9000000
0160:27075C   mov  eax,[ebp-0004] 8B45FC
0160:27075F   add  dword [ebp-0004],0017 8345FC17
0160:270763   jmp  short 0027074C ($-19) EBE7
0160:270765   mov  eax,[ebp-0004] 8B45FC
0160:270768   mov  eax,[eax+000E] 8B400E
0160:27076B   cmp  eax,[ebp+0014] 3B4514
0160:27076E   jne  0027077D ($+d) 750D
0160:270770   mov  eax,[ebp-0004] 8B45FC
0160:270773   mov  ax,[eax+0012] 668B4012
0160:270777   cmp  ax,[ebp+0018] 663B4518
0160:27077B   je   00270782 ($+5) 7405
0160:27077D   jmp  00270840 ($+be) E9BE000000
0160:270782   mov  eax,[ebp-0004] 8B45FC
0160:270785   push dword [eax] FF30
0160:270787   call 00275010 ($+4884) E884480000
0160:27078C   add  esp,0004 83C404
0160:27078F   cmp  eax,0002 83F802
0160:270792   jz   00270840 ($+a8) 0F84A8000000
0160:270798   cmp  dword [ebp+001C],007F 66837D1C7F
0160:27079D   jbe  002707A6 ($+7) 7607
0160:27079F   mov  dword [ebp+001C],0000007F C7451C7F000000
0160:2707A6   xor  edx,edx 31D2
0160:2707A8   mov  dx,[ebp+001C] 668B551C
0160:2707AC   mov  eax,[ebp-0004] 8B45FC
0160:2707AF   cmp  edx,[eax+0004] 3B5004
0160:2707B2   jz   00270845 ($+8d) 0F848D000000
0160:2707B8   mov  eax,[ebp-0004] 8B45FC
0160:2707BB   mov  byte [eax+0014],00 C6401400
0160:2707BF   mov  eax,[ebp+001C] 8B451C
0160:2707C2   mov  edx,[ebp-0004] 8B55FC
0160:2707C5   mov  [edx+000C],ax 6689420C
0160:2707C9   mov  al,[ebp+0024] 8A4524
0160:2707CC   mov  edx,[ebp-0004] 8B55FC
0160:2707CF   mov  [edx+0015],al 884215
0160:2707D2   xor  edx,edx 31D2
0160:2707D4   mov  dx,[ebp+001C] 668B551C
0160:2707D8   mov  eax,[ebp-0004] 8B45FC
0160:2707DB   cmp  edx,[eax+0004] 3B5004
0160:2707DE   jg   002707E9 ($+9) 7F09
0160:2707E0   mov  eax,[ebp-0004] 8B45FC
0160:2707E3   mov  byte [eax+0014],02 C6401402
0160:2707E7   jmp  short 002707F0 ($+7) EB07
0160:2707E9   mov  eax,[ebp-0004] 8B45FC
0160:2707EC   mov  byte [eax+0014],01 C6401401
0160:2707F0   cmp  byte [002B488D],00 803D8D482B0000
0160:2707F7   jne  0027083E ($+45) 7545
0160:2707F9   mov  byte [002B488D],01 C6058D482B0001
0160:270800   cmp  byte [ebp+0020],04 807D2004
0160:270804   ja   0027083E ($+38) 7738
0160:270806   mov  eax,002704B0 B8B0042700
0160:27080B   push eax 50
0160:27080C   call 00273600 ($+2def) E8EF2D0000
0160:270811   add  esp,0004 83C404
0160:270814   mov  [00351CA0],eax A3A01C3500
0160:270819   xor  eax,eax 31C0
0160:27081B   mov  al,[ebp+0020] 8A4520
0160:27081E   imul eax,eax,1E 6BC01E
0160:270821   push eax 50
0160:270822   push dword [00351CA0] FF35A01C3500
0160:270828   call 00273930 ($+3103) E803310000
0160:27082D   add  esp,0008 83C408
0160:270830   push dword [00351CA0] FF35A01C3500
0160:270836   call 00273BA0 ($+3365) E865330000
0160:27083B   add  esp,0004 83C404
0160:27083E   jmp  short 00270845 ($+5) EB05
0160:270840   jmp  0027075C ($-e9) E917FFFFFF
0160:270845   mov  esp,ebp 89EC
0160:270847   pop  ebp 5D
0160:270848   pop  edi 5F
0160:270849   pop  esi 5E
0160:27084A   pop  ebx 5B
0160:27084B   ret C3
0160:27084C   lea  eax,[eax] 8D442000
0160:270850   push ebx 53
0160:270851   push esi 56
0160:270852   push edi 57
0160:270853   push ebp 55
0160:270854   mov  ebp,esp 89E5
0160:270856   sub  esp,00000004 81EC04000000
0160:27085C   cmp  byte [002B488D],00 803D8D482B0000
0160:270863   je   002708A7 ($+42) 7442
0160:270865   push dword [00351CA0] FF35A01C3500
0160:27086B   call 00273DC0 ($+3550) E850350000
0160:270870   add  esp,0004 83C404
0160:270873   mov  byte [002B488D],00 C6058D482B0000
0160:27087A   mov  dword [ebp-0004],00351750 C745FC50173500
0160:270881   mov  eax,[ebp-0004] 8B45FC
0160:270884   cmp  eax,[00351B4C] 3B054C1B3500
0160:27088A   jc   00270897 ($+b) 720B
0160:27088C   jmp  short 002708A7 ($+19) EB19
0160:27088E   mov  eax,[ebp-0004] 8B45FC
0160:270891   add  dword [ebp-0004],0017 8345FC17
0160:270895   jmp  short 00270881 ($-16) EBEA
0160:270897   mov  eax,[ebp-0004] 8B45FC
0160:27089A   mov  byte [eax+0014],00 C6401400
0160:27089E   mov  eax,[ebp-0004] 8B45FC
0160:2708A1   mov  byte [eax+0015],00 C6401500
0160:2708A5   jmp  short 0027088E ($-19) EBE7
0160:2708A7   mov  esp,ebp 89EC
0160:2708A9   pop  ebp 5D
0160:2708AA   pop  edi 5F
0160:2708AB   pop  esi 5E
0160:2708AC   pop  ebx 5B
0160:2708AD   ret C3
0160:2708AE   add  [eax],al 0000
0160:2708B0   push ebp 55
0160:2708B1   mov  ebp,esp 8BEC
0160:2708B3   push eax 50
0160:2708B4   push ebx 53
0160:2708B5   push ecx 51
0160:2708B6   push edx 52
0160:2708B7   push edi 57
0160:2708B8   push esi 56
0160:2708B9   push ebp 55
0160:2708BA   mov  esi,[ebp+0010] 8B7510
0160:2708BD   movsx ebx,[ebp+0008] 0FBF5D08
0160:2708C1   movsx ecx,[ebp+000C] 0FBF4D0C
0160:2708C5   mov  edi,[00351628] 8B3D28163500
0160:2708CB   mov  dl,[esi+0004] 8A5604
0160:2708CE   mov  dh,[esi+0005] 8A7605
0160:2708D1   mov  esi,[esi] 8B36
0160:2708D3   push 0000 6A00
0160:2708D5   push 0000 6A00
0160:2708D7   call 00270935 ($+59) E859000000
0160:2708DC   add  esp,0008 83C408
0160:2708DF   pop  ebp 5D
0160:2708E0   pop  esi 5E
0160:2708E1   pop  edi 5F
0160:2708E2   pop  edx 5A
0160:2708E3   pop  ecx 59
0160:2708E4   pop  ebx 5B
0160:2708E5   pop  eax 58
0160:2708E6   leave C9
0160:2708E7   ret C3
0160:2708E8   push ebp 55
0160:2708E9   mov  ebp,esp 8BEC
0160:2708EB   push eax 50
0160:2708EC   push ebx 53
0160:2708ED   push ecx 51
0160:2708EE   push edx 52
0160:2708EF   push edi 57
0160:2708F0   push esi 56
0160:2708F1   push ebp 55
0160:2708F2   mov  esi,[ebp+0010] 8B7510
0160:2708F5   movsx ebx,[ebp+0008] 0FBF5D08
0160:2708F9   movsx ecx,[ebp+000C] 0FBF4D0C
0160:2708FD   mov  edi,[00351628] 8B3D28163500
0160:270903   mov  dl,[esi+0004] 8A5604
0160:270906   mov  dh,[esi+0005] 8A7605
0160:270909   mov  esi,[esi] 8B36
0160:27090B   push 0000 6A00
0160:27090D   push 0000 6A00
0160:27090F   call 00270935 ($+21) E821000000
0160:270914   add  esp,0008 83C408
0160:270917   pop  ebp 5D
0160:270918   pop  esi 5E
0160:270919   pop  edi 5F
0160:27091A   pop  edx 5A
0160:27091B   pop  ecx 59
0160:27091C   pop  ebx 5B
0160:27091D   pop  eax 58
0160:27091E   leave C9
0160:27091F   ret C3
0160:270920   push ebp 55
0160:270921   mov  ebp,esp 8BEC
0160:270923   mov  al,[ebp+000C] 8A450C
0160:270926   push eax 50
0160:270927   mov  al,[ebp+0008] 8A4508
0160:27092A   push eax 50
0160:27092B   call 00270935 ($+5) E805000000
0160:270930   add  esp,0008 83C408
0160:270933   leave C9
0160:270934   ret C3
0160:270935   push ebp 55
0160:270936   mov  ebp,esp 8BEC
0160:270938   add  esp,FFF8 83C4F8
0160:27093B   or   dh,dh 0AF6
0160:27093D   jz   0027115F ($+81c) 0F841C080000
0160:270943   mov  eax,[00351650] A150163500
0160:270948   imul eax,[0035162C] 0FAF052C163500
0160:27094F   add  eax,[0035163C] 03053C163500
0160:270955   mov  edi,eax 8BF8
0160:270957   add  edi,[00351628] 033D28163500
0160:27095D   test dword [00351660],0001 66F705601635000100
0160:270966   je   00270970 ($+8) 7408
0160:270968   shr  dl,1 D0EA
0160:27096A   shr  dh,1 D0EE
0160:27096C   sar  ebx,1 D1FB
0160:27096E   sar  ecx,1 D1F9
0160:270970   cmp  ecx,0000 83F900
0160:270973   js   00271112 ($+799) 0F8899070000
0160:270979   movzx eax,dh 0FB6C6
0160:27097C   add  eax,ecx 03C1
0160:27097E   cmp  eax,[00351644] 3B0544163500
0160:270984   jge  002710BE ($+734) 0F8D34070000
0160:27098A   cmp  ebx,0000 83FB00
0160:27098D   jl   00270EFE ($+56b) 0F8C6B050000
0160:270993   movzx eax,dl 0FB6C2
0160:270996   add  eax,ebx 03C3
0160:270998   cmp  eax,[00351648] 3B0548163500
0160:27099E   jge  00270D1A ($+376) 0F8D76030000
0160:2709A4   test dword [002B46D4],0001 66F705D4462B000100
0160:2709AD   jz   00270A76 ($+c3) 0F84C3000000
0160:2709B3   test dword [002B46D4],0002 66F705D4462B000200
0160:2709BC   je   00270A1B ($+5d) 745D
0160:2709BE   add  edi,ebx 03FB
0160:2709C0   movzx eax,dl 0FB6C2
0160:2709C3   add  edi,eax 03F8
0160:2709C5   movzx eax,dh 0FB6C6
0160:2709C8   add  ecx,eax 03C8
0160:2709CA   imul ecx,[0035162C] 0FAF0D2C163500
0160:2709D1   add  edi,ecx 03F9
0160:2709D3   mov  ecx,00000000 B900000000
0160:2709D8   mov  eax,FFFFFFFF B8FFFFFFFF
0160:2709DD   mov  ebx,edi 8BDF
0160:2709DF   mov  al,[esi] 8A06
0160:2709E1   inc  esi 46
0160:2709E2   cmp  al,00 3C00
0160:2709E4   js   002709F4 ($+e) 780E
0160:2709E6   je   00270A05 ($+1d) 741D
0160:2709E8   mov  cl,al 8AC8
0160:2709EA   mov  al,[esi] 8A06
0160:2709EC   inc  esi 46
0160:2709ED   mov  [edi],al 8807
0160:2709EF   dec  edi 4F
0160:2709F0   loop 002709EA ($-8) E2F8
0160:2709F2   jmp  short 002709DF ($-15) EBEB
0160:2709F4   add  edi,eax 03F8
0160:2709F6   mov  al,[esi] 8A06
0160:2709F8   inc  esi 46
0160:2709F9   mov  cl,al 8AC8
0160:2709FB   mov  al,[esi] 8A06
0160:2709FD   inc  esi 46
0160:2709FE   mov  [edi],al 8807
0160:270A00   dec  edi 4F
0160:270A01   loop 002709FB ($-8) E2F8
0160:270A03   jmp  short 002709DF ($-26) EBDA
0160:270A05   sub  ebx,[0035162C] 2B1D2C163500
0160:270A0B   mov  edi,ebx 8BFB
0160:270A0D   dec  dh FECE
0160:270A0F   jne  002709DF ($-32) 75CE
0160:270A11   jmp  0027115F ($+749) E949070000
0160:270A16   jmp  0027115F ($+744) E944070000
0160:270A1B   add  edi,ebx 03FB
0160:270A1D   movzx eax,dl 0FB6C2
0160:270A20   add  edi,eax 03F8
0160:270A22   imul ecx,[0035162C] 0FAF0D2C163500
0160:270A29   add  edi,ecx 03F9
0160:270A2B   mov  ecx,00000000 B900000000
0160:270A30   mov  eax,FFFFFFFF B8FFFFFFFF
0160:270A35   mov  ebx,edi 8BDF
0160:270A37   mov  al,[esi] 8A06
0160:270A39   inc  esi 46
0160:270A3A   cmp  al,00 3C00
0160:270A3C   js   00270A4C ($+e) 780E
0160:270A3E   je   00270A5D ($+1d) 741D
0160:270A40   mov  cl,al 8AC8
0160:270A42   mov  al,[esi] 8A06
0160:270A44   inc  esi 46
0160:270A45   mov  [edi],al 8807
0160:270A47   dec  edi 4F
0160:270A48   loop 00270A42 ($-8) E2F8
0160:270A4A   jmp  short 00270A37 ($-15) EBEB
0160:270A4C   add  edi,eax 03F8
0160:270A4E   mov  al,[esi] 8A06
0160:270A50   inc  esi 46
0160:270A51   mov  cl,al 8AC8
0160:270A53   mov  al,[esi] 8A06
0160:270A55   inc  esi 46
0160:270A56   mov  [edi],al 8807
0160:270A58   dec  edi 4F
0160:270A59   loop 00270A53 ($-8) E2F8
0160:270A5B   jmp  short 00270A37 ($-26) EBDA
0160:270A5D   add  ebx,[0035162C] 031D2C163500
0160:270A63   mov  edi,ebx 8BFB
0160:270A65   mov  dl,[ebp-0006] 8A55FA
0160:270A68   dec  dh FECE
0160:270A6A   jne  00270A37 ($-35) 75CB
0160:270A6C   jmp  0027115F ($+6ee) E9EE060000
0160:270A71   jmp  0027115F ($+6e9) E9E9060000
0160:270A76   cmp  dword [002B46D4],0000 66833DD4462B0000
0160:270A7E   jne  00270AC3 ($+43) 7543
0160:270A80   add  edi,ebx 03FB
0160:270A82   imul ecx,[0035162C] 0FAF0D2C163500
0160:270A89   add  edi,ecx 03F9
0160:270A8B   mov  ecx,00000000 B900000000
0160:270A90   mov  eax,FFFFFFFF B8FFFFFFFF
0160:270A95   mov  ebx,edi 8BDF
0160:270A97   lodsb AC
0160:270A98   cmp  al,00 3C00
0160:270A9A   js   00270AA4 ($+8) 7808
0160:270A9C   je   00270AAD ($+f) 740F
0160:270A9E   mov  cl,al 8AC8
0160:270AA0   repe movsb F3A4
0160:270AA2   jmp  short 00270A97 ($-d) EBF3
0160:270AA4   sub  edi,eax 2BF8
0160:270AA6   lodsb AC
0160:270AA7   mov  cl,al 8AC8
0160:270AA9   repe movsb F3A4
0160:270AAB   jmp  short 00270A97 ($-16) EBEA
0160:270AAD   add  ebx,[0035162C] 031D2C163500
0160:270AB3   mov  edi,ebx 8BFB
0160:270AB5   dec  dh FECE
0160:270AB7   jne  00270A97 ($-22) 75DE
0160:270AB9   jmp  0027115F ($+6a1) E9A1060000
0160:270ABE   jmp  00270D15 ($+252) E952020000
0160:270AC3   test dword [002B46D4],0002 66F705D4462B000200
0160:270ACC   je   00270B16 ($+48) 7448
0160:270ACE   add  edi,ebx 03FB
0160:270AD0   movzx eax,dh 0FB6C6
0160:270AD3   add  ecx,eax 03C8
0160:270AD5   imul ecx,[0035162C] 0FAF0D2C163500
0160:270ADC   add  edi,ecx 03F9
0160:270ADE   mov  ecx,00000000 B900000000
0160:270AE3   mov  eax,FFFFFFFF B8FFFFFFFF
0160:270AE8   mov  ebx,edi 8BDF
0160:270AEA   lodsb AC
0160:270AEB   cmp  al,00 3C00
0160:270AED   js   00270AF7 ($+8) 7808
0160:270AEF   je   00270B00 ($+f) 740F
0160:270AF1   mov  cl,al 8AC8
0160:270AF3   repe movsb F3A4
0160:270AF5   jmp  short 00270AEA ($-d) EBF3
0160:270AF7   sub  edi,eax 2BF8
0160:270AF9   lodsb AC
0160:270AFA   mov  cl,al 8AC8
0160:270AFC   repe movsb F3A4
0160:270AFE   jmp  short 00270AEA ($-16) EBEA
0160:270B00   sub  ebx,[0035162C] 2B1D2C163500
0160:270B06   mov  edi,ebx 8BFB
0160:270B08   dec  dh FECE
0160:270B0A   jne  00270AEA ($-22) 75DE
0160:270B0C   jmp  0027115F ($+64e) E94E060000
0160:270B11   jmp  00270D15 ($+1ff) E9FF010000
0160:270B16   test dword [002B46D4],0004 66F705D4462B000400
0160:270B1F   je   00270B74 ($+53) 7453
0160:270B21   push ebp 55
0160:270B22   mov  ebp,[002B4890] 8B2D90482B00
0160:270B28   add  edi,ebx 03FB
0160:270B2A   imul ecx,[0035162C] 0FAF0D2C163500
0160:270B31   add  edi,ecx 03F9
0160:270B33   mov  ecx,00000000 B900000000
0160:270B38   mov  eax,FFFFFFFF B8FFFFFFFF
0160:270B3D   mov  ebx,edi 8BDF
0160:270B3F   lodsb AC
0160:270B40   cmp  al,00 3C00
0160:270B42   js   00270B56 ($+12) 7812
0160:270B44   je   00270B5D ($+17) 7417
0160:270B46   mov  cl,al 8AC8
0160:270B48   movzx eax,al 0FB6C0
0160:270B4B   lodsb AC
0160:270B4C   mov  ah,[edi] 8A27
0160:270B4E   mov  al,[eax+ebp] 8A0428
0160:270B51   stosb AA
0160:270B52   loop 00270B4B ($-9) E2F7
0160:270B54   jmp  short 00270B3F ($-17) EBE9
0160:270B56   movsx eax,al 0FBEC0
0160:270B59   sub  edi,eax 2BF8
0160:270B5B   jmp  short 00270B3F ($-1e) EBE2
0160:270B5D   add  ebx,[0035162C] 031D2C163500
0160:270B63   mov  edi,ebx 8BFB
0160:270B65   dec  dh FECE
0160:270B67   jne  00270B3F ($-2a) 75D6
0160:270B69   pop  ebp 5D
0160:270B6A   jmp  0027115F ($+5f0) E9F0050000
0160:270B6F   jmp  00270D15 ($+1a1) E9A1010000
0160:270B74   test dword [002B46D4],0008 66F705D4462B000800
0160:270B7D   je   00270BFC ($+7d) 747D
0160:270B7F   add  edi,ebx 03FB
0160:270B81   imul ecx,[0035162C] 0FAF0D2C163500
0160:270B88   add  edi,ecx 03F9
0160:270B8A   mov  ecx,00000000 B900000000
0160:270B8F   mov  eax,FFFFFFFF B8FFFFFFFF
0160:270B94   mov  [ebp-0004],edi 897DFC
0160:270B97   mov  [ebp-0005],dh 8875FB
0160:270B9A   mov  dl,[ebp+0008] 8A5508
0160:270B9D   lodsb AC
0160:270B9E   cmp  al,00 3C00
0160:270BA0   js   00270BB3 ($+11) 7811
0160:270BA2   je   00270BC4 ($+20) 7420
0160:270BA4   mov  cl,al 8AC8
0160:270BA6   lodsb AC
0160:270BA7   dec  dl FECA
0160:270BA9   jge  00270BAF ($+4) 7D04
0160:270BAB   mov  dl,[ebp+0008] 8A5508
0160:270BAE   stosb AA
0160:270BAF   loop 00270BA6 ($-b) E2F5
0160:270BB1   jmp  short 00270B9D ($-16) EBEA
0160:270BB3   neg  eal F6D8
0160:270BB5   movzx ecx,al 0FB6C8
0160:270BB8   dec  dl FECA
0160:270BBA   jge  00270BC0 ($+4) 7D04
0160:270BBC   mov  dl,[ebp+0008] 8A5508
0160:270BBF   inc  edi 47
0160:270BC0   loop 00270BB8 ($-a) E2F6
0160:270BC2   jmp  short 00270B9D ($-27) EBD9
0160:270BC4   dec  byte [ebp-0005] FE4DFB
0160:270BC7   jz   0027115F ($+592) 0F8492050000
0160:270BCD   mov  dl,[ebp+000C] 8A550C
0160:270BD0   dec  dl FECA
0160:270BD2   js   00270BE2 ($+e) 780E
0160:270BD4   lodsb AC
0160:270BD5   cmp  al,00 3C00
0160:270BD7   js   00270BD4 ($-5) 78FB
0160:270BD9   je   00270BD0 ($-b) 74F5
0160:270BDB   movzx eax,al 0FB6C0
0160:270BDE   add  esi,eax 03F0
0160:270BE0   jmp  short 00270BD4 ($-e) EBF2
0160:270BE2   mov  eax,[0035162C] A12C163500
0160:270BE7   add  [ebp-0004],eax 0145FC
0160:270BEA   mov  edi,[ebp-0004] 8B7DFC
0160:270BED   mov  dl,[ebp+0008] 8A5508
0160:270BF0   mov  eax,FFFFFFFF B8FFFFFFFF
0160:270BF5   jmp  short 00270B9D ($-5a) EBA6
0160:270BF7   jmp  00270D15 ($+119) E919010000
0160:270BFC   test dword [002B46D4],0020 66F705D4462B002000
0160:270C05   je   00270C82 ($+7b) 747B
0160:270C07   add  edi,ebx 03FB
0160:270C09   imul ecx,[0035162C] 0FAF0D2C163500
0160:270C10   add  edi,ecx 03F9
0160:270C12   mov  ecx,00000000 B900000000
0160:270C17   mov  eax,FFFFFFFF B8FFFFFFFF
0160:270C1C   mov  [ebp-0004],edi 897DFC
0160:270C1F   mov  [ebp-0005],dh 8875FB
0160:270C22   lodsb AC
0160:270C23   cmp  al,00 3C00
0160:270C25   js   00270C38 ($+11) 7811
0160:270C27   je   00270C49 ($+20) 7420
0160:270C29   mov  dl,al 8AD0
0160:270C2B   lodsb AC
0160:270C2C   movzx ecx,[ebp+0008] 0FB64D08
0160:270C30   repe stosb F3AA
0160:270C32   dec  dl FECA
0160:270C34   jg   00270C2B ($-b) 7FF5
0160:270C36   jmp  short 00270C22 ($-16) EBEA
0160:270C38   neg  eal F6D8
0160:270C3A   movzx eax,al 0FB6C0
0160:270C3D   movzx ebx,[ebp+0008] 0FB65D08
0160:270C41   imul ax,bx 660FAFC3
0160:270C45   add  edi,eax 03F8
0160:270C47   jmp  short 00270C22 ($-27) EBD9
0160:270C49   mov  dl,[ebp+000C] 8A550C
0160:270C4C   dec  dl FECA
0160:270C4E   jle  00270C6D ($+1d) 7E1D
0160:270C50   push esi 56
0160:270C51   mov  ebx,edi 8BDF
0160:270C53   sub  ebx,[ebp-0004] 2B5DFC
0160:270C56   mov  esi,[ebp-0004] 8B75FC
0160:270C59   mov  edi,esi 8BFE
0160:270C5B   add  edi,[0035162C] 033D2C163500
0160:270C61   mov  [ebp-0004],edi 897DFC
0160:270C64   mov  ecx,ebx 8BCB
0160:270C66   repe movsb F3A4
0160:270C68   dec  dl FECA
0160:270C6A   jg   00270C56 ($-16) 7FEA
0160:270C6C   pop  esi 5E
0160:270C6D   mov  eax,[0035162C] A12C163500
0160:270C72   add  [ebp-0004],eax 0145FC
0160:270C75   mov  edi,[ebp-0004] 8B7DFC
0160:270C78   dec  byte [ebp-0005] FE4DFB
0160:270C7B   jne  00270C22 ($-5b) 75A5
0160:270C7D   jmp  00270D15 ($+93) E993000000
0160:270C82   test dword [002B46D4],0040 66F705D4462B004000
0160:270C8B   je   00270CD7 ($+4a) 744A
0160:270C8D   add  edi,ebx 03FB
0160:270C8F   imul ecx,[0035162C] 0FAF0D2C163500
0160:270C96   add  edi,ecx 03F9
0160:270C98   mov  ecx,00000000 B900000000
0160:270C9D   mov  eax,FFFFFFFF B8FFFFFFFF
0160:270CA2   mov  ebx,edi 8BDF
0160:270CA4   lodsb AC
0160:270CA5   cmp  al,00 3C00
0160:270CA7   js   00270CB6 ($+d) 780D
0160:270CA9   je   00270CC4 ($+19) 7419
0160:270CAB   mov  cl,al 8AC8
0160:270CAD   add  esi,ecx 03F1
0160:270CAF   mov  al,[ebp+0008] 8A4508
0160:270CB2   repe stosb F3AA
0160:270CB4   jmp  short 00270CA4 ($-12) EBEE
0160:270CB6   sub  edi,eax 2BF8
0160:270CB8   lodsb AC
0160:270CB9   mov  cl,al 8AC8
0160:270CBB   add  esi,ecx 03F1
0160:270CBD   mov  al,[ebp+0008] 8A4508
0160:270CC0   repe stosb F3AA
0160:270CC2   jmp  short 00270CA4 ($-20) EBE0
0160:270CC4   add  ebx,[0035162C] 031D2C163500
0160:270CCA   mov  edi,ebx 8BFB
0160:270CCC   dec  dh FECE
0160:270CCE   jne  00270CA4 ($-2c) 75D4
0160:270CD0   jmp  0027115F ($+48a) E98A040000
0160:270CD5   jmp  short 00270D15 ($+3e) EB3E
0160:270CD7   add  edi,ebx 03FB
0160:270CD9   imul ecx,[0035162C] 0FAF0D2C163500
0160:270CE0   add  edi,ecx 03F9
0160:270CE2   mov  ecx,00000000 B900000000
0160:270CE7   mov  eax,FFFFFFFF B8FFFFFFFF
0160:270CEC   mov  ebx,edi 8BDF
0160:270CEE   lodsb AC
0160:270CEF   cmp  al,00 3C00
0160:270CF1   js   00270CFB ($+8) 7808
0160:270CF3   je   00270D04 ($+f) 740F
0160:270CF5   mov  cl,al 8AC8
0160:270CF7   repe movsb F3A4
0160:270CF9   jmp  short 00270CEE ($-d) EBF3
0160:270CFB   sub  edi,eax 2BF8
0160:270CFD   lodsb AC
0160:270CFE   mov  cl,al 8AC8
0160:270D00   repe movsb F3A4
0160:270D02   jmp  short 00270CEE ($-16) EBEA
0160:270D04   add  ebx,[0035162C] 031D2C163500
0160:270D0A   mov  edi,ebx 8BFB
0160:270D0C   dec  dh FECE
0160:270D0E   jne  00270CEE ($-22) 75DE
0160:270D10   jmp  0027115F ($+44a) E94A040000
0160:270D15   jmp  0027115F ($+445) E945040000
0160:270D1A   cmp  dword [002B46D4],0000 66833DD4462B0000
0160:270D22   jne  00270D8B ($+67) 7567
0160:270D24   add  edi,ebx 03FB
0160:270D26   neg  ebx F7DB
0160:270D28   add  ebx,[00351634] 031D34163500
0160:270D2E   js   0027115F ($+42b) 0F882B040000
0160:270D34   imul ecx,[0035162C] 0FAF0D2C163500
0160:270D3B   add  edi,ecx 03F9
0160:270D3D   mov  bh,dh 8AFE
0160:270D3F   mov  [ebp-0006],bl 885DFA
0160:270D42   mov  edx,edi 8BD7
0160:270D44   mov  ecx,00000000 B900000000
0160:270D49   lodsb AC
0160:270D4A   cmp  al,00 3C00
0160:270D4C   js   00270D5C ($+e) 780E
0160:270D4E   je   00270D72 ($+22) 7422
0160:270D50   mov  cl,al 8AC8
0160:270D52   lodsb AC
0160:270D53   dec  bl FECB
0160:270D55   js   00270D58 ($+1) 7801
0160:270D57   stosb AA
0160:270D58   loop 00270D52 ($-8) E2F8
0160:270D5A   jmp  short 00270D49 ($-13) EBED
0160:270D5C   add  bl,al 02D8
0160:270D5E   jle  00270D49 ($-17) 7EE9
0160:270D60   movsx eax,al 0FBEC0
0160:270D63   sub  edi,eax 2BF8
0160:270D65   lodsb AC
0160:270D66   mov  cl,al 8AC8
0160:270D68   lodsb AC
0160:270D69   dec  bl FECB
0160:270D6B   js   00270D6E ($+1) 7801
0160:270D6D   stosb AA
0160:270D6E   loop 00270D68 ($-8) E2F8
0160:270D70   jmp  short 00270D49 ($-29) EBD7
0160:270D72   add  edx,[0035162C] 03152C163500
0160:270D78   mov  edi,edx 8BFA
0160:270D7A   mov  bl,[ebp-0006] 8A5DFA
0160:270D7D   dec  bh FECF
0160:270D7F   jne  00270D49 ($-38) 75C8
0160:270D81   jmp  0027115F ($+3d9) E9D9030000
0160:270D86   jmp  00270EF9 ($+16e) E96E010000
0160:270D8B   test dword [002B46D4],0001 66F705D4462B000100
0160:270D94   jz   00270E8F ($+f5) 0F84F5000000
0160:270D9A   test dword [002B46D4],0002 66F705D4462B000200
0160:270DA3   je   00270E1E ($+79) 7479
0160:270DA5   mov  eax,ebx 8BC3
0160:270DA7   neg  eax F7D8
0160:270DA9   add  eax,[00351634] 030534163500
0160:270DAF   js   0027115F ($+3aa) 0F88AA030000
0160:270DB5   movzx eax,dl 0FB6C2
0160:270DB8   add  ebx,eax 03D8
0160:270DBA   add  edi,ebx 03FB
0160:270DBC   movzx eax,dh 0FB6C6
0160:270DBF   add  ecx,eax 03C8
0160:270DC1   imul ecx,[0035162C] 0FAF0D2C163500
0160:270DC8   add  edi,ecx 03F9
0160:270DCA   mov  ecx,00000000 B900000000
0160:270DCF   neg  ebx F7DB
0160:270DD1   add  ebx,[00351634] 031D34163500
0160:270DD7   sub  ebx,0002 83EB02
0160:270DDA   mov  dl,bl 8AD3
0160:270DDC   mov  [ebp-0006],dl 8855FA
0160:270DDF   mov  eax,FFFFFFFF B8FFFFFFFF
0160:270DE4   mov  ebx,edi 8BDF
0160:270DE6   mov  al,[esi] 8A06
0160:270DE8   inc  esi 46
0160:270DE9   cmp  al,00 3C00
0160:270DEB   js   00270DFF ($+12) 7812
0160:270DED   je   00270E05 ($+16) 7416
0160:270DEF   mov  cl,al 8AC8
0160:270DF1   mov  al,[esi] 8A06
0160:270DF3   inc  esi 46
0160:270DF4   inc  dl FEC2
0160:270DF6   js   00270DFA ($+2) 7802
0160:270DF8   mov  [edi],al 8807
0160:270DFA   dec  edi 4F
0160:270DFB   loop 00270DF1 ($-c) E2F4
0160:270DFD   jmp  short 00270DE6 ($-19) EBE7
0160:270DFF   add  edi,eax 03F8
0160:270E01   sub  dl,al 2AD0
0160:270E03   jmp  short 00270DE6 ($-1f) EBE1
0160:270E05   sub  ebx,[0035162C] 2B1D2C163500
0160:270E0B   mov  edi,ebx 8BFB
0160:270E0D   mov  dl,[ebp-0006] 8A55FA
0160:270E10   dec  dh FECE
0160:270E12   jne  00270DE6 ($-2e) 75D2
0160:270E14   jmp  0027115F ($+346) E946030000
0160:270E19   jmp  00270EF9 ($+db) E9DB000000
0160:270E1E   mov  eax,ebx 8BC3
0160:270E20   neg  eax F7D8
0160:270E22   add  eax,[00351634] 030534163500
0160:270E28   js   0027115F ($+331) 0F8831030000
0160:270E2E   movzx eax,dl 0FB6C2
0160:270E31   add  ebx,eax 03D8
0160:270E33   add  edi,ebx 03FB
0160:270E35   imul ecx,[0035162C] 0FAF0D2C163500
0160:270E3C   add  edi,ecx 03F9
0160:270E3E   mov  ecx,00000000 B900000000
0160:270E43   neg  ebx F7DB
0160:270E45   add  ebx,[00351634] 031D34163500
0160:270E4B   sub  ebx,0002 83EB02
0160:270E4E   mov  dl,bl 8AD3
0160:270E50   mov  [ebp-0006],dl 8855FA
0160:270E53   mov  eax,FFFFFFFF B8FFFFFFFF
0160:270E58   mov  ebx,edi 8BDF
0160:270E5A   mov  al,[esi] 8A06
0160:270E5C   inc  esi 46
0160:270E5D   cmp  al,00 3C00
0160:270E5F   js   00270E73 ($+12) 7812
0160:270E61   je   00270E79 ($+16) 7416
0160:270E63   mov  cl,al 8AC8
0160:270E65   mov  al,[esi] 8A06
0160:270E67   inc  esi 46
0160:270E68   inc  dl FEC2
0160:270E6A   js   00270E6E ($+2) 7802
0160:270E6C   mov  [edi],al 8807
0160:270E6E   dec  edi 4F
0160:270E6F   loop 00270E65 ($-c) E2F4
0160:270E71   jmp  short 00270E5A ($-19) EBE7
0160:270E73   add  edi,eax 03F8
0160:270E75   sub  dl,al 2AD0
0160:270E77   jmp  short 00270E5A ($-1f) EBE1
0160:270E79   add  ebx,[0035162C] 031D2C163500
0160:270E7F   mov  edi,ebx 8BFB
0160:270E81   mov  dl,[ebp-0006] 8A55FA
0160:270E84   dec  dh FECE
0160:270E86   jne  00270E5A ($-2e) 75D2
0160:270E88   jmp  0027115F ($+2d2) E9D2020000
0160:270E8D   jmp  short 00270EF9 ($+6a) EB6A
0160:270E8F   test dword [002B46D4],0002 66F705D4462B000200
0160:270E98   je   00270EF9 ($+5f) 745F
0160:270E9A   add  edi,ebx 03FB
0160:270E9C   movzx eax,dh 0FB6C6
0160:270E9F   add  ecx,eax 03C8
0160:270EA1   imul ecx,[0035162C] 0FAF0D2C163500
0160:270EA8   add  edi,ecx 03F9
0160:270EAA   mov  ecx,00000000 B900000000
0160:270EAF   movzx eax,dl 0FB6C2
0160:270EB2   neg  ebx F7DB
0160:270EB4   add  ebx,[00351634] 031D34163500
0160:270EBA   js   0027115F ($+29f) 0F889F020000
0160:270EC0   mov  dl,bl 8AD3
0160:270EC2   mov  [ebp-0006],dl 8855FA
0160:270EC5   mov  eax,FFFFFFFF B8FFFFFFFF
0160:270ECA   mov  ebx,edi 8BDF
0160:270ECC   lodsb AC
0160:270ECD   cmp  al,00 3C00
0160:270ECF   js   00270EDF ($+e) 780E
0160:270ED1   je   00270EE5 ($+12) 7412
0160:270ED3   mov  cl,al 8AC8
0160:270ED5   lodsb AC
0160:270ED6   dec  dl FECA
0160:270ED8   js   00270EDB ($+1) 7801
0160:270EDA   stosb AA
0160:270EDB   loop 00270ED5 ($-8) E2F8
0160:270EDD   jmp  short 00270ECC ($-13) EBED
0160:270EDF   sub  edi,eax 2BF8
0160:270EE1   add  dl,al 02D0
0160:270EE3   jmp  short 00270ECC ($-19) EBE7
0160:270EE5   sub  ebx,[0035162C] 2B1D2C163500
0160:270EEB   mov  edi,ebx 8BFB
0160:270EED   mov  dl,[ebp-0006] 8A55FA
0160:270EF0   dec  dh FECE
0160:270EF2   jne  00270ECC ($-28) 75D8
0160:270EF4   jmp  0027115F ($+266) E966020000
0160:270EF9   jmp  0027115F ($+261) E961020000
0160:270EFE   cmp  dword [002B46D4],0000 66833DD4462B0000
0160:270F06   jne  00270F6F ($+67) 7567
0160:270F08   neg  ebx F7DB
0160:270F0A   movzx eax,dl 0FB6C2
0160:270F0D   cmp  eax,ebx 3BC3
0160:270F0F   jbe  00270F65 ($+54) 7654
0160:270F11   imul ecx,[0035162C] 0FAF0D2C163500
0160:270F18   add  edi,ecx 03F9
0160:270F1A   mov  bh,dh 8AFE
0160:270F1C   mov  edx,edi 8BD7
0160:270F1E   mov  [ebp-0006],bl 885DFA
0160:270F21   mov  ecx,00000000 B900000000
0160:270F26   lodsb AC
0160:270F27   cmp  al,00 3C00
0160:270F29   js   00270F39 ($+e) 780E
0160:270F2B   je   00270F56 ($+29) 7429
0160:270F2D   mov  cl,al 8AC8
0160:270F2F   lodsb AC
0160:270F30   dec  bl FECB
0160:270F32   jns  00270F35 ($+1) 7901
0160:270F34   stosb AA
0160:270F35   loop 00270F2F ($-8) E2F8
0160:270F37   jmp  short 00270F26 ($-13) EBED
0160:270F39   cmp  bl,00 80FB00
0160:270F3C   jle  00270F44 ($+6) 7E06
0160:270F3E   add  bl,al 02D8
0160:270F40   jns  00270F26 ($-1c) 79E4
0160:270F42   mov  al,bl 8AC3
0160:270F44   movsx eax,al 0FBEC0
0160:270F47   sub  edi,eax 2BF8
0160:270F49   lodsb AC
0160:270F4A   mov  cl,al 8AC8
0160:270F4C   lodsb AC
0160:270F4D   dec  bl FECB
0160:270F4F   jns  00270F52 ($+1) 7901
0160:270F51   stosb AA
0160:270F52   loop 00270F4C ($-8) E2F8
0160:270F54   jmp  short 00270F26 ($-30) EBD0
0160:270F56   add  edx,[0035162C] 03152C163500
0160:270F5C   mov  edi,edx 8BFA
0160:270F5E   mov  bl,[ebp-0006] 8A5DFA
0160:270F61   dec  bh FECF
0160:270F63   jne  00270F26 ($-3f) 75C1
0160:270F65   jmp  0027115F ($+1f5) E9F5010000
0160:270F6A   jmp  002710B9 ($+14a) E94A010000
0160:270F6F   test dword [002B46D4],0001 66F705D4462B000100
0160:270F78   jz   00271047 ($+c9) 0F84C9000000
0160:270F7E   test dword [002B46D4],0002 66F705D4462B000200
0160:270F87   je   00270FEC ($+63) 7463
0160:270F89   movzx eax,dh 0FB6C6
0160:270F8C   add  ecx,eax 03C8
0160:270F8E   movzx eax,dl 0FB6C2
0160:270F91   add  edi,ebx 03FB
0160:270F93   add  edi,eax 03F8
0160:270F95   imul ecx,[0035162C] 0FAF0D2C163500
0160:270F9C   add  edi,ecx 03F9
0160:270F9E   mov  ecx,00000000 B900000000
0160:270FA3   add  ebx,eax 03D8
0160:270FA5   inc  ebx 43
0160:270FA6   js   0027115F ($+1b3) 0F88B3010000
0160:270FAC   mov  dl,bl 8AD3
0160:270FAE   mov  [ebp-0006],dl 8855FA
0160:270FB1   mov  ebx,edi 8BDF
0160:270FB3   mov  eax,FFFFFFFF B8FFFFFFFF
0160:270FB8   lodsb AC
0160:270FB9   cmp  al,00 3C00
0160:270FBB   js   00270FCD ($+10) 7810
0160:270FBD   je   00270FD3 ($+14) 7414
0160:270FBF   mov  cl,al 8AC8
0160:270FC1   lodsb AC
0160:270FC2   dec  dl FECA
0160:270FC4   js   00270FC8 ($+2) 7802
0160:270FC6   mov  [edi],al 8807
0160:270FC8   dec  edi 4F
0160:270FC9   loop 00270FC1 ($-a) E2F6
0160:270FCB   jmp  short 00270FB8 ($-15) EBEB
0160:270FCD   add  edi,eax 03F8
0160:270FCF   add  dl,al 02D0
0160:270FD1   jmp  short 00270FB8 ($-1b) EBE5
0160:270FD3   sub  ebx,[0035162C] 2B1D2C163500
0160:270FD9   mov  edi,ebx 8BFB
0160:270FDB   mov  dl,[ebp-0006] 8A55FA
0160:270FDE   dec  dh FECE
0160:270FE0   jne  00270FB8 ($-2a) 75D6
0160:270FE2   jmp  0027115F ($+178) E978010000
0160:270FE7   jmp  002710B9 ($+cd) E9CD000000
0160:270FEC   movzx eax,dl 0FB6C2
0160:270FEF   add  edi,ebx 03FB
0160:270FF1   add  edi,eax 03F8
0160:270FF3   imul ecx,[0035162C] 0FAF0D2C163500
0160:270FFA   add  edi,ecx 03F9
0160:270FFC   mov  ecx,00000000 B900000000
0160:271001   add  ebx,eax 03D8
0160:271003   inc  ebx 43
0160:271004   js   0027115F ($+155) 0F8855010000
0160:27100A   mov  dl,bl 8AD3
0160:27100C   mov  [ebp-0006],dl 8855FA
0160:27100F   mov  ebx,edi 8BDF
0160:271011   mov  eax,FFFFFFFF B8FFFFFFFF
0160:271016   lodsb AC
0160:271017   cmp  al,00 3C00
0160:271019   js   0027102B ($+10) 7810
0160:27101B   je   00271031 ($+14) 7414
0160:27101D   mov  cl,al 8AC8
0160:27101F   lodsb AC
0160:271020   dec  dl FECA
0160:271022   js   00271026 ($+2) 7802
0160:271024   mov  [edi],al 8807
0160:271026   dec  edi 4F
0160:271027   loop 0027101F ($-a) E2F6
0160:271029   jmp  short 00271016 ($-15) EBEB
0160:27102B   add  edi,eax 03F8
0160:27102D   add  dl,al 02D0
0160:27102F   jmp  short 00271016 ($-1b) EBE5
0160:271031   add  ebx,[0035162C] 031D2C163500
0160:271037   mov  edi,ebx 8BFB
0160:271039   mov  dl,[ebp-0006] 8A55FA
0160:27103C   dec  dh FECE
0160:27103E   jne  00271016 ($-2a) 75D6
0160:271040   jmp  0027115F ($+11a) E91A010000
0160:271045   jmp  short 002710B9 ($+72) EB72
0160:271047   test dword [002B46D4],0002 66F705D4462B000200
0160:271050   je   002710B9 ($+67) 7467
0160:271052   neg  ebx F7DB
0160:271054   movzx eax,dl 0FB6C2
0160:271057   cmp  eax,ebx 3BC3
0160:271059   jbe  002710B4 ($+59) 7659
0160:27105B   movzx eax,dh 0FB6C6
0160:27105E   add  ecx,eax 03C8
0160:271060   imul ecx,[0035162C] 0FAF0D2C163500
0160:271067   add  edi,ecx 03F9
0160:271069   mov  bh,dh 8AFE
0160:27106B   mov  edx,edi 8BD7
0160:27106D   mov  [ebp-0006],bl 885DFA
0160:271070   mov  ecx,00000000 B900000000
0160:271075   lodsb AC
0160:271076   cmp  al,00 3C00
0160:271078   js   00271088 ($+e) 780E
0160:27107A   je   002710A5 ($+29) 7429
0160:27107C   mov  cl,al 8AC8
0160:27107E   lodsb AC
0160:27107F   dec  bl FECB
0160:271081   jns  00271084 ($+1) 7901
0160:271083   stosb AA
0160:271084   loop 0027107E ($-8) E2F8
0160:271086   jmp  short 00271075 ($-13) EBED
0160:271088   cmp  bl,00 80FB00
0160:27108B   jle  00271093 ($+6) 7E06
0160:27108D   add  bl,al 02D8
0160:27108F   jns  00271075 ($-1c) 79E4
0160:271091   mov  al,bl 8AC3
0160:271093   movsx eax,al 0FBEC0
0160:271096   sub  edi,eax 2BF8
0160:271098   lodsb AC
0160:271099   mov  cl,al 8AC8
0160:27109B   lodsb AC
0160:27109C   dec  bl FECB
0160:27109E   jns  002710A1 ($+1) 7901
0160:2710A0   stosb AA
0160:2710A1   loop 0027109B ($-8) E2F8
0160:2710A3   jmp  short 00271075 ($-30) EBD0
0160:2710A5   sub  edx,[0035162C] 2B152C163500
0160:2710AB   mov  edi,edx 8BFA
0160:2710AD   mov  bl,[ebp-0006] 8A5DFA
0160:2710B0   dec  bh FECF
0160:2710B2   jne  00271075 ($-3f) 75C1
0160:2710B4   jmp  0027115F ($+a6) E9A6000000
0160:2710B9   jmp  0027115F ($+a1) E9A1000000
0160:2710BE   test dword [002B46D4],0002 66F705D4462B000200
0160:2710C7   je   00271100 ($+37) 7437
0160:2710C9   movzx edi,dh 0FB6FE
0160:2710CC   mov  eax,ecx 8BC1
0160:2710CE   inc  eax 40
0160:2710CF   sub  eax,[00351644] 2B0544163500
0160:2710D5   jge  0027115F ($+84) 0F8D84000000
0160:2710DB   add  eax,edi 03C7
0160:2710DD   sub  dh,al 2AF0
0160:2710DF   mov  edi,eax 8BF8
0160:2710E1   xor  eax,eax 33C0
0160:2710E3   mov  al,[esi] 8A06
0160:2710E5   inc  esi 46
0160:2710E6   cmp  al,00 3C00
0160:2710E8   je   002710F0 ($+6) 7406
0160:2710EA   js   002710E3 ($-9) 78F7
0160:2710EC   add  esi,eax 03F0
0160:2710EE   jmp  short 002710E3 ($-d) EBF3
0160:2710F0   dec  edi 4F
0160:2710F1   jne  002710E3 ($-10) 75F0
0160:2710F3   mov  edi,[00351628] 8B3D28163500
0160:2710F9   jmp  0027098A ($-774) E98CF8FFFF
0160:2710FE   jmp  short 00271110 ($+10) EB10
0160:271100   mov  eax,[00351644] A144163500
0160:271105   sub  eax,ecx 2BC1
0160:271107   jle  0027115F ($+56) 7E56
0160:271109   mov  dh,al 8AF0
0160:27110B   jmp  0027098A ($-786) E97AF8FFFF
0160:271110   jmp  short 0027115F ($+4d) EB4D
0160:271112   test dword [002B46D4],0002 66F705D4462B000200
0160:27111B   je   00271133 ($+16) 7416
0160:27111D   movzx eax,dh 0FB6C6
0160:271120   add  eax,ecx 03C1
0160:271122   inc  eax 40
0160:271123   jle  0027115F ($+3a) 7E3A
0160:271125   mov  ecx,FFFFFFFF B9FFFFFFFF
0160:27112A   mov  dh,al 8AF0
0160:27112C   jmp  0027098A ($-7a7) E959F8FFFF
0160:271131   jmp  short 0027115F ($+2c) EB2C
0160:271133   movzx eax,dh 0FB6C6
0160:271136   add  eax,ecx 03C1
0160:271138   jle  0027115F ($+25) 7E25
0160:27113A   mov  dh,al 8AF0
0160:27113C   xor  ah,ah 32E4
0160:27113E   lodsb AC
0160:27113F   cmp  al,00 3C00
0160:271141   je   00271149 ($+6) 7406
0160:271143   js   0027113E ($-7) 78F9
0160:271145   add  esi,eax 03F0
0160:271147   jmp  short 0027113E ($-b) EBF5
0160:271149   inc  ecx 41
0160:27114A   jne  0027113E ($-e) 75F2
0160:27114C   jmp  0027098A ($-7c7) E939F8FFFF
0160:271151   mov  eax,[00351644] A144163500
0160:271156   sub  eax,ecx 2BC1
0160:271158   mov  dh,al 8AF0
0160:27115A   jmp  0027098A ($-7d5) E92BF8FFFF
0160:27115F   leave C9
0160:271160   ret C3
0160:271161   add  [eax],al 0000
0160:271163   add  [ebp-0075],dl 00558B
0160:271166   in   al,dx EC
0160:271167   add  esp,FFFC 83C4FC
0160:27116A   push eax 50
0160:27116B   push ebx 53
0160:27116C   push ecx 51
0160:27116D   push edx 52
0160:27116E   push edi 57
0160:27116F   push esi 56
0160:271170   movzx edi,[ebp+0008] 0FB77D08
0160:271174   shr  edi,1 D1EF
0160:271176   add  edi,[00351628] 033D28163500
0160:27117C   movzx eax,[ebp+000C] 0FB7450C
0160:271180   shr  eax,1 D1E8
0160:271182   imul eax,eax,00000140 69C040010000
0160:271188   add  edi,eax 03F8
0160:27118A   movzx edx,[ebp+0014] 0FB75514
0160:27118E   shr  dx,1 66D1EA
0160:271191   shr  dword [ebp+0010],1 66D16D10
0160:271195   mov  eax,00000140 B840010000
0160:27119A   sub  ax,[ebp+0010] 662B4510
0160:27119E   mov  [ebp-0004],eax 8945FC
0160:2711A1   test dword [002B46D4],0004 66F705D4462B000400
0160:2711AA   je   002711CB ($+1f) 741F
0160:2711AC   movzx ebx,[ebp+0018] 0FB75D18
0160:2711B0   mov  esi,[002B4890] 8B3590482B00
0160:2711B6   movzx ecx,[ebp+0010] 0FB74D10
0160:2711BA   mov  bh,[edi] 8A3F
0160:2711BC   mov  al,[ebx+esi] 8A0433
0160:2711BF   stosb AA
0160:2711C0   loop 002711BA ($-8) E2F8
0160:2711C2   add  edi,[ebp-0004] 037DFC
0160:2711C5   dec  dx 664A
0160:2711C7   jne  002711B6 ($-13) 75ED
0160:2711C9   jmp  short 002711DC ($+11) EB11
0160:2711CB   movzx eax,[ebp+0018] 0FB74518
0160:2711CF   movzx ecx,[ebp+0010] 0FB74D10
0160:2711D3   repe stosb F3AA
0160:2711D5   add  edi,[ebp-0004] 037DFC
0160:2711D8   dec  dx 664A
0160:2711DA   jne  002711CF ($-d) 75F3
0160:2711DC   pop  esi 5E
0160:2711DD   pop  edi 5F
0160:2711DE   pop  edx 5A
0160:2711DF   pop  ecx 59
0160:2711E0   pop  ebx 5B
0160:2711E1   pop  eax 58
0160:2711E2   leave C9
0160:2711E3   ret C3
0160:2711E4   push ebp 55
0160:2711E5   mov  ebp,esp 8BEC
0160:2711E7   add  esp,FFFC 83C4FC
0160:2711EA   push eax 50
0160:2711EB   push ebx 53
0160:2711EC   push ecx 51
0160:2711ED   push edx 52
0160:2711EE   push edi 57
0160:2711EF   push esi 56
0160:2711F0   movzx edi,[ebp+0008] 0FB77D08
0160:2711F4   add  edi,[00351628] 033D28163500
0160:2711FA   movzx eax,[ebp+000C] 0FB7450C
0160:2711FE   imul eax,eax,00000280 69C080020000
0160:271204   add  edi,eax 03F8
0160:271206   movzx edx,[ebp+0014] 0FB75514
0160:27120A   mov  eax,00000280 B880020000
0160:27120F   sub  ax,[ebp+0010] 662B4510
0160:271213   mov  [ebp-0004],eax 8945FC
0160:271216   test dword [002B46D4],0004 66F705D4462B000400
0160:27121F   je   00271240 ($+1f) 741F
0160:271221   movzx ebx,[ebp+0018] 0FB75D18
0160:271225   mov  esi,[002B4890] 8B3590482B00
0160:27122B   movzx ecx,[ebp+0010] 0FB74D10
0160:27122F   mov  bh,[edi] 8A3F
0160:271231   mov  al,[ebx+esi] 8A0433
0160:271234   stosb AA
0160:271235   loop 0027122F ($-8) E2F8
0160:271237   add  edi,[ebp-0004] 037DFC
0160:27123A   dec  dx 664A
0160:27123C   jne  0027122B ($-13) 75ED
0160:27123E   jmp  short 00271251 ($+11) EB11
0160:271240   movzx eax,[ebp+0018] 0FB74518
0160:271244   movzx ecx,[ebp+0010] 0FB74D10
0160:271248   repe stosb F3AA
0160:27124A   add  edi,[ebp-0004] 037DFC
0160:27124D   dec  dx 664A
0160:27124F   jne  00271244 ($-d) 75F3
0160:271251   pop  esi 5E
0160:271252   pop  edi 5F
0160:271253   pop  edx 5A
0160:271254   pop  ecx 59
0160:271255   pop  ebx 5B
0160:271256   pop  eax 58
0160:271257   leave C9
0160:271258   ret C3
0160:271259   add  [eax],al 0000
0160:27125B   add  [ebp-0075],dl 00558B
0160:27125E   in   al,dx EC
0160:27125F   push eax 50
0160:271260   push ebx 53
0160:271261   push ecx 51
0160:271262   push edx 52
0160:271263   push edi 57
0160:271264   push esi 56
0160:271265   mov  ax,[0035163C] 66A13C163500
0160:27126B   mov  bx,[00351634] 668B1D34163500
0160:271272   mov  cx,[00351650] 668B0D50163500
0160:271279   mov  dx,[00351630] 668B1530163500
0160:271280   shl  ax,1 66D1E0
0160:271283   shl  bx,1 66D1E3
0160:271286   shl  cx,1 66D1E1
0160:271289   shl  dx,1 66D1E2
0160:27128C   cmp  [ebp+0008],ax 66394508
0160:271290   jge  00271296 ($+4) 7D04
0160:271292   mov  [ebp+0008],ax 66894508
0160:271296   cmp  [ebp+0010],ax 66394510
0160:27129A   jge  002712A4 ($+8) 7D08
0160:27129C   pop  esi 5E
0160:27129D   pop  edi 5F
0160:27129E   pop  edx 5A
0160:27129F   pop  ecx 59
0160:2712A0   pop  ebx 5B
0160:2712A1   pop  eax 58
0160:2712A2   leave C9
0160:2712A3   ret C3
0160:2712A4   cmp  [ebp+0008],bx 66395D08
0160:2712A8   jl   002712B2 ($+8) 7C08
0160:2712AA   pop  esi 5E
0160:2712AB   pop  edi 5F
0160:2712AC   pop  edx 5A
0160:2712AD   pop  ecx 59
0160:2712AE   pop  ebx 5B
0160:2712AF   pop  eax 58
0160:2712B0   leave C9
0160:2712B1   ret C3
0160:2712B2   cmp  [ebp+0010],bx 66395D10
0160:2712B6   jl   002712BC ($+4) 7C04
0160:2712B8   mov  [ebp+0010],bx 66895D10
0160:2712BC   cmp  [ebp+000C],cx 66394D0C
0160:2712C0   jge  002712C6 ($+4) 7D04
0160:2712C2   mov  [ebp+000C],cx 66894D0C
0160:2712C6   cmp  [ebp+0014],cx 66394D14
0160:2712CA   jge  002712D4 ($+8) 7D08
0160:2712CC   pop  esi 5E
0160:2712CD   pop  edi 5F
0160:2712CE   pop  edx 5A
0160:2712CF   pop  ecx 59
0160:2712D0   pop  ebx 5B
0160:2712D1   pop  eax 58
0160:2712D2   leave C9
0160:2712D3   ret C3
0160:2712D4   cmp  [ebp+000C],dx 6639550C
0160:2712D8   jl   002712E2 ($+8) 7C08
0160:2712DA   pop  esi 5E
0160:2712DB   pop  edi 5F
0160:2712DC   pop  edx 5A
0160:2712DD   pop  ecx 59
0160:2712DE   pop  ebx 5B
0160:2712DF   pop  eax 58
0160:2712E0   leave C9
0160:2712E1   ret C3
0160:2712E2   cmp  [ebp+0014],dx 66395514
0160:2712E6   jl   002712EC ($+4) 7C04
0160:2712E8   mov  [ebp+0014],dx 66895514
0160:2712EC   movzx edi,[ebp+0008] 0FB77D08
0160:2712F0   shr  edi,1 D1EF
0160:2712F2   add  edi,[00351628] 033D28163500
0160:2712F8   movzx eax,[ebp+000C] 0FB7450C
0160:2712FC   shr  eax,1 D1E8
0160:2712FE   imul eax,eax,00000140 69C040010000
0160:271304   add  edi,eax 03F8
0160:271306   movzx eax,[ebp+0018] 0FB74518
0160:27130A   movzx ecx,[ebp+0010] 0FB74D10
0160:27130E   sub  cx,[ebp+0008] 662B4D08
0160:271312   jne  0027134A ($+36) 7536
0160:271314   movzx ecx,[ebp+0014] 0FB74D14
0160:271318   sub  cx,[ebp+000C] 662B4D0C
0160:27131C   shr  cx,1 66D1E9
0160:27131F   test dword [ebp+001C],0004 66F7451C0400
0160:271325   je   0027133E ($+17) 7417
0160:271327   mov  esi,[002B4890] 8B3590482B00
0160:27132D   mov  ah,[edi] 8A27
0160:27132F   mov  bl,[eax+esi] 8A1C30
0160:271332   mov  [edi],bl 881F
0160:271334   add  edi,00000140 81C740010000
0160:27133A   loop 0027132D ($-f) E2F1
0160:27133C   jmp  short 0027136B ($+2d) EB2D
0160:27133E   mov  [edi],al 8807
0160:271340   add  edi,00000140 81C740010000
0160:271346   loop 0027133E ($-a) E2F6
0160:271348   jmp  short 0027136B ($+21) EB21
0160:27134A   shr  cx,1 66D1E9
0160:27134D   test dword [ebp+001C],0004 66F7451C0400
0160:271353   je   00271369 ($+14) 7414
0160:271355   mov  esi,[002B4890] 8B3590482B00
0160:27135B   mov  ah,[edi] 8A27
0160:27135D   mov  bl,[eax+esi] 8A1C30
0160:271360   mov  [edi],bl 881F
0160:271362   add  edi,0001 83C701
0160:271365   loop 0027135B ($-c) E2F4
0160:271367   jmp  short 0027136B ($+2) EB02
0160:271369   repe stosb F3AA
0160:27136B   pop  esi 5E
0160:27136C   pop  edi 5F
0160:27136D   pop  edx 5A
0160:27136E   pop  ecx 59
0160:27136F   pop  ebx 5B
0160:271370   pop  eax 58
0160:271371   leave C9
0160:271372   ret C3
0160:271373   add  [ebp-0075],dl 00558B
0160:271376   in   al,dx EC
0160:271377   push eax 50
0160:271378   push ebx 53
0160:271379   push ecx 51
0160:27137A   push edx 52
0160:27137B   push edi 57
0160:27137C   push esi 56
0160:27137D   mov  ax,[0035163C] 66A13C163500
0160:271383   mov  bx,[00351634] 668B1D34163500
0160:27138A   mov  cx,[00351650] 668B0D50163500
0160:271391   mov  dx,[00351630] 668B1530163500
0160:271398   cmp  [ebp+0008],ax 66394508
0160:27139C   jge  002713A2 ($+4) 7D04
0160:27139E   mov  [ebp+0008],ax 66894508
0160:2713A2   cmp  [ebp+0010],ax 66394510
0160:2713A6   jge  002713B0 ($+8) 7D08
0160:2713A8   pop  esi 5E
0160:2713A9   pop  edi 5F
0160:2713AA   pop  edx 5A
0160:2713AB   pop  ecx 59
0160:2713AC   pop  ebx 5B
0160:2713AD   pop  eax 58
0160:2713AE   leave C9
0160:2713AF   ret C3
0160:2713B0   cmp  [ebp+0008],bx 66395D08
0160:2713B4   jl   002713BE ($+8) 7C08
0160:2713B6   pop  esi 5E
0160:2713B7   pop  edi 5F
0160:2713B8   pop  edx 5A
0160:2713B9   pop  ecx 59
0160:2713BA   pop  ebx 5B
0160:2713BB   pop  eax 58
0160:2713BC   leave C9
0160:2713BD   ret C3
0160:2713BE   cmp  [ebp+0010],bx 66395D10
0160:2713C2   jl   002713C8 ($+4) 7C04
0160:2713C4   mov  [ebp+0010],bx 66895D10
0160:2713C8   cmp  [ebp+000C],cx 66394D0C
0160:2713CC   jge  002713D2 ($+4) 7D04
0160:2713CE   mov  [ebp+000C],cx 66894D0C
0160:2713D2   cmp  [ebp+0014],cx 66394D14
0160:2713D6   jge  002713E0 ($+8) 7D08
0160:2713D8   pop  esi 5E
0160:2713D9   pop  edi 5F
0160:2713DA   pop  edx 5A
0160:2713DB   pop  ecx 59
0160:2713DC   pop  ebx 5B
0160:2713DD   pop  eax 58
0160:2713DE   leave C9
0160:2713DF   ret C3
0160:2713E0   cmp  [ebp+000C],dx 6639550C
0160:2713E4   jl   002713EE ($+8) 7C08
0160:2713E6   pop  esi 5E
0160:2713E7   pop  edi 5F
0160:2713E8   pop  edx 5A
0160:2713E9   pop  ecx 59
0160:2713EA   pop  ebx 5B
0160:2713EB   pop  eax 58
0160:2713EC   leave C9
0160:2713ED   ret C3
0160:2713EE   cmp  [ebp+0014],dx 66395514
0160:2713F2   jl   002713F8 ($+4) 7C04
0160:2713F4   mov  [ebp+0014],dx 66895514
0160:2713F8   movzx edi,[ebp+0008] 0FB77D08
0160:2713FC   add  edi,[00351628] 033D28163500
0160:271402   movzx eax,[ebp+000C] 0FB7450C
0160:271406   imul eax,eax,00000280 69C080020000
0160:27140C   add  edi,eax 03F8
0160:27140E   movzx eax,[ebp+0018] 0FB74518
0160:271412   movzx ecx,[ebp+0010] 0FB74D10
0160:271416   sub  cx,[ebp+0008] 662B4D08
0160:27141A   jne  0027144F ($+33) 7533
0160:27141C   movzx ecx,[ebp+0014] 0FB74D14
0160:271420   sub  cx,[ebp+000C] 662B4D0C
0160:271424   test dword [ebp+001C],0004 66F7451C0400
0160:27142A   je   00271443 ($+17) 7417
0160:27142C   mov  esi,[002B4890] 8B3590482B00
0160:271432   mov  ah,[edi] 8A27
0160:271434   mov  bl,[eax+esi] 8A1C30
0160:271437   mov  [edi],bl 881F
0160:271439   add  edi,00000280 81C780020000
0160:27143F   loop 00271432 ($-f) E2F1
0160:271441   jmp  short 0027146D ($+2a) EB2A
0160:271443   mov  [edi],al 8807
0160:271445   add  edi,00000280 81C780020000
0160:27144B   loop 00271443 ($-a) E2F6
0160:27144D   jmp  short 0027146D ($+1e) EB1E
0160:27144F   test dword [ebp+001C],0004 66F7451C0400
0160:271455   je   0027146B ($+14) 7414
0160:271457   mov  esi,[002B4890] 8B3590482B00
0160:27145D   mov  ah,[edi] 8A27
0160:27145F   mov  bl,[eax+esi] 8A1C30
0160:271462   mov  [edi],bl 881F
0160:271464   add  edi,0001 83C701
0160:271467   loop 0027145D ($-c) E2F4
0160:271469   jmp  short 0027146D ($+2) EB02
0160:27146B   repe stosb F3AA
0160:27146D   pop  esi 5E
0160:27146E   pop  edi 5F
0160:27146F   pop  edx 5A
0160:271470   pop  ecx 59
0160:271471   pop  ebx 5B
0160:271472   pop  eax 58
0160:271473   leave C9
0160:271474   ret C3
0160:271475   add  [eax],al 0000
0160:271477   add  [ebp-0075],dl 00558B
0160:27147A   in   al,dx EC
0160:27147B   push esi 56
0160:27147C   push edi 57
0160:27147D   push ecx 51
0160:27147E   cmp  byte [002B4766],00 803D66472B0000
0160:271485   jne  0027148C ($+5) 7505
0160:271487   call 0026DACD ($-39bf) E841C6FFFF
0160:27148C   mov  edi,000A0000 BF00000A00
0160:271491   mov  esi,[00351628] 8B3528163500
0160:271497   mov  ecx,00003E80 B9803E0000
0160:27149C   repe movsd F3A5
0160:27149E   cmp  byte [002B4766],00 803D66472B0000
0160:2714A5   jne  002714AC ($+5) 7505
0160:2714A7   call 0026DB1F ($-398d) E873C6FFFF
0160:2714AC   pop  ecx 59
0160:2714AD   pop  edi 5F
0160:2714AE   pop  esi 5E
0160:2714AF   leave C9
0160:2714B0   ret C3
0160:2714B1   add  [eax],al 0000
0160:2714B3   add  [eax],al 0000
0160:2714B5   add  [eax],al 0000
0160:2714B7   add  [eax],al 0000
0160:2714B9   add  [eax],al 0000
0160:2714BB   add  [eax],al 0000
0160:2714BD   add  [eax],al 0000
0160:2714BF   add  [ebx-007D],dl 005383
0160:2714C2   in   al,dx EC
0160:2714C3   or   cl,bl 08D9
0160:2714C5   inc  esp 44
0160:2714C6   and  al,10 2410
0160:2714C8   fcompq [002A320C] DC1D0C322A00
0160:2714CE   fstsw ax DFE0
0160:2714D0   sahf 9E
0160:2714D1   jnc  002714DB ($+8) 7308
0160:2714D3   mov  dword [esp+0010],3C23D70A C74424100AD7233C
0160:2714DB   xor  ebx,ebx 31DB
0160:2714DD   mov  [esp],ebx 891C24
0160:2714E0   fld  [esp+0010] D9442410
0160:2714E4   fild [esp] DB0424
0160:2714E7   fmul [002A3214] D80D14322A00
0160:2714ED   fld  st,st(1) D9C1
0160:2714EF   fld1 D9E8
0160:2714F1   fdivrp st(1),st DEF1
0160:2714F3   fxch st,st(1) D9C9
0160:2714F5   call 0028197C ($+10482) E882040100
0160:2714FA   fmulq [002A3218] DC0D18322A00
0160:271500   mov  edx,[esp] 8B1424
0160:271503   faddq [002A3220] DC0520322A00
0160:271509   lea  ecx,[edx+0001] 8D4A01
0160:27150C   call 0027C4F6 ($+afe5) E8E5AF0000
0160:271511   fistp [esp+0004] DB5C2404
0160:271515   mov  al,[esp+0004] 8A442404
0160:271519   mov  [esp],ecx 890C24
0160:27151C   mov  [edx+00352504],al 888204253500
0160:271522   cmp  ecx,0040 83F940
0160:271525   jl   002714E4 ($-43) 7CBD
0160:271527   fstp st(0) DDD8
0160:271529   add  esp,0008 83C408
0160:27152C   pop  ebx 5B
0160:27152D   ret C3
0160:27152E   mov  eax,eax 8BC0
0160:271530   push ebx 53
0160:271531   push esi 56
0160:271532   mov  esi,[esp+0010] 8B742410
0160:271536   push dword [esp+0014] FF742414
0160:27153A   call 002714C0 ($-7f) E881FFFFFF
0160:27153F   add  esp,0004 83C404
0160:271542   cmp  esi,00000100 81FE00010000
0160:271548   jle  0027154F ($+5) 7E05
0160:27154A   mov  esi,00000100 BE00010000
0160:27154F   mov  edx,000003C8 BAC8030000
0160:271554   xor  al,al 30C0
0160:271556   out  dx,al EE
0160:271557   xor  ecx,ecx 31C9
0160:271559   test esi,esi 85F6
0160:27155B   jle  002715A8 ($+4b) 7E4B
0160:27155D   mov  ebx,[esp+000C] 8B5C240C
0160:271561   mov  edx,000003C9 BAC9030000
0160:271566   mov  al,[ebx] 8A03
0160:271568   and  eax,000000FF 25FF000000
0160:27156D   mov  al,[eax+00352504] 8A8004253500
0160:271573   out  dx,al EE
0160:271574   mov  eax,[ebx] 8B03
0160:271576   sar  eax,08 C1F808
0160:271579   and  eax,000000FF 25FF000000
0160:27157E   and  eax,000000FF 25FF000000
0160:271583   mov  al,[eax+00352504] 8A8004253500
0160:271589   out  dx,al EE
0160:27158A   mov  eax,[ebx] 8B03
0160:27158C   sar  eax,10 C1F810
0160:27158F   and  eax,000000FF 25FF000000
0160:271594   and  eax,000000FF 25FF000000
0160:271599   add  ebx,0004 83C304
0160:27159C   mov  al,[eax+00352504] 8A8004253500
0160:2715A2   inc  ecx 41
0160:2715A3   out  dx,al EE
0160:2715A4   cmp  ecx,esi 39F1
0160:2715A6   jl   00271566 ($-42) 7CBE
0160:2715A8   pop  esi 5E
0160:2715A9   pop  ebx 5B
0160:2715AA   ret C3
0160:2715AB   nop 90
0160:2715AC   push dword [esp+0004] FF742404
0160:2715B0   push 00000100 6800010000
0160:2715B5   push 00351CA4 68A41C3500
0160:2715BA   call 00271530 ($-8f) E871FFFFFF
0160:2715BF   add  esp,000C 83C40C
0160:2715C2   ret C3
0160:2715C3   nop 90
0160:2715C4   mov  edx,000003DA BADA030000
0160:2715C9   sub  eax,eax 29C0
0160:2715CB   in   al,dx EC
0160:2715CC   mov  al,11 B011
0160:2715CE   mov  edx,000003C0 BAC0030000
0160:2715D3   out  dx,al EE
0160:2715D4   mov  al,[esp+0004] 8A442404
0160:2715D8   out  dx,al EE
0160:2715D9   mov  edx,000003DA BADA030000
0160:2715DE   sub  eax,eax 29C0
0160:2715E0   in   al,dx EC
0160:2715E1   mov  al,20 B020
0160:2715E3   mov  edx,000003C0 BAC0030000
0160:2715E8   out  dx,al EE
0160:2715E9   ret C3
0160:2715EA   mov  eax,eax 8BC0
0160:2715EC   sub  esp,001C 83EC1C
0160:2715EF   mov  eax,00000449 B849040000
0160:2715F4   mov  ax,[eax] 668B00
0160:2715F7   mov  [002B4908],ax 66A308492B00
0160:2715FD   mov  al,[esp+0020] 8A442420
0160:271601   mov  [esp],al 880424
0160:271604   xor  ah,ah 30E4
0160:271606   mov  [esp+0001],ah 88642401
0160:27160A   mov  eax,esp 89E0
0160:27160C   push eax 50
0160:27160D   push eax 50
0160:27160E   push 0010 6A10
0160:271610   call 00279D52 ($+873d) E83D870000
0160:271615   add  esp,000C 83C40C
0160:271618   add  esp,001C 83C41C
0160:27161B   ret C3
0160:27161C   push ebx 53
0160:27161D   sub  esp,001C 83EC1C
0160:271620   cmp  dword [002B4908],0000 66833D08492B0000
0160:271628   je   00271662 ($+38) 7438
0160:27162A   mov  eax,00000449 B849040000
0160:27162F   mov  ax,[eax] 668B00
0160:271632   mov  edx,[002B4906] 8B1506492B00
0160:271638   mov  [002B4908],ax 66A308492B00
0160:27163E   xor  ah,ah 30E4
0160:271640   mov  [esp+0001],ah 88642401
0160:271644   mov  eax,esp 89E0
0160:271646   push eax 50
0160:271647   push eax 50
0160:271648   sar  edx,10 C1FA10
0160:27164B   push 0010 6A10
0160:27164D   xor  ebx,ebx 31DB
0160:27164F   mov  [esp+000C],dl 8854240C
0160:271653   call 00279D52 ($+86fa) E8FA860000
0160:271658   add  esp,000C 83C40C
0160:27165B   mov  [002B4908],bx 66891D08492B00
0160:271662   add  esp,001C 83C41C
0160:271665   pop  ebx 5B
0160:271666   ret C3
0160:271667   nop 90
0160:271668   push ebx 53
0160:271669   mov  edx,[esp+0008] 8B542408
0160:27166D   test edx,edx 85D2
0160:27166F   je   00271695 ($+24) 7424
0160:271671   xor  eax,eax 31C0
0160:271673   xor  edx,edx 31D2
0160:271675   imul ebx,eax,000000A0 69D8A0000000
0160:27167B   inc  eax 40
0160:27167C   mov  [edx+003521E4],bx 66899AE4213500
0160:271683   add  edx,0002 83C202
0160:271686   add  ebx,000000A0 81C3A0000000
0160:27168C   cmp  eax,00000190 3D90010000
0160:271691   jge  002716AF ($+1c) 7D1C
0160:271693   jmp  short 0027167B ($-1a) EBE6
0160:271695   xor  eax,eax 31C0
0160:271697   imul ebx,edx,50 6BDA50
0160:27169A   inc  eax 40
0160:27169B   mov  [edx+003521E4],bx 66899AE4213500
0160:2716A2   add  edx,0002 83C202
0160:2716A5   add  ebx,0050 83C350
0160:2716A8   cmp  eax,00000190 3D90010000
0160:2716AD   jl   0027169A ($-15) 7CEB
0160:2716AF   pop  ebx 5B
0160:2716B0   ret C3
0160:2716B1   lea  eax,[eax] 8D4000
0160:2716B4   push ebx 53
0160:2716B5   push esi 56
0160:2716B6   push edi 57
0160:2716B7   push ebp 55
0160:2716B8   sub  esp,0020 83EC20
0160:2716BB   mov  edx,00000449 BA49040000
0160:2716C0   mov  eax,00000013 B813000000
0160:2716C5   mov  dx,[edx] 668B12
0160:2716C8   mov  [esp],al 880424
0160:2716CB   xor  ah,ah 30E4
0160:2716CD   mov  [esp+0001],ah 88642401
0160:2716D1   mov  eax,esp 89E0
0160:2716D3   push eax 50
0160:2716D4   push eax 50
0160:2716D5   push 0010 6A10
0160:2716D7   mov  [002B4908],dx 66891508492B00
0160:2716DE   call 00279D52 ($+866f) E86F860000
0160:2716E3   add  esp,000C 83C40C
0160:2716E6   push 0019 6A19
0160:2716E8   push 002B4894 6894482B00
0160:2716ED   call 00281BB0 ($+104be) E8BE040100
0160:2716F2   add  esp,0008 83C408
0160:2716F5   mov  eax,00000604 B804060000
0160:2716FA   mov  edx,000003C4 BAC4030000
0160:2716FF   out  dx,ax 66EF
0160:271701   mov  eax,00000014 B814000000
0160:271706   mov  edx,000003D4 BAD4030000
0160:27170B   out  dx,ax 66EF
0160:27170D   mov  eax,0000E317 B817E30000
0160:271712   out  dx,ax 66EF
0160:271714   mov  eax,0000FF08 B808FF0000
0160:271719   mov  edx,000003CE BACE030000
0160:27171E   out  dx,ax 66EF
0160:271720   mov  eax,00000F02 B8020F0000
0160:271725   mov  edx,000003C4 BAC4030000
0160:27172A   out  dx,ax 66EF
0160:27172C   mov  edx,000A0000 BA00000A00
0160:271731   mov  dword [edx],00000000 C70200000000
0160:271737   add  edx,0004 83C204
0160:27173A   cmp  edx,000B0000 81FA00000B00
0160:271740   jne  00271731 ($-11) 75EF
0160:271742   xor  ebx,ebx 31DB
0160:271744   mov  cl,bl 88D9
0160:271746   mov  al,01 B001
0160:271748   and  cl,03 80E103
0160:27174B   inc  ebx 43
0160:27174C   shl  al,cl D2E0
0160:27174E   mov  [ebx+003520A3],al 8883A3203500
0160:271754   cmp  ebx,00000140 81FB40010000
0160:27175A   jl   00271744 ($-18) 7CE8
0160:27175C   push 0000 6A00
0160:27175E   call 00271668 ($-fb) E805FFFFFF
0160:271763   xor  ebx,ebx 31DB
0160:271765   add  esp,0004 83C404
0160:271768   xor  ecx,ecx 31C9
0160:27176A   mov  ebp,00000007 BD07000000
0160:27176F   mov  edx,ebx 89DA
0160:271771   and  edx,ebp 21EA
0160:271773   imul edx,edx,3F 6BD23F
0160:271776   mov  eax,edx 89D0
0160:271778   sar  edx,1F C1FA1F
0160:27177B   idiv ebp F7FD
0160:27177D   mov  edx,ebx 89DA
0160:27177F   sar  edx,03 C1FA03
0160:271782   and  edx,ebp 21EA
0160:271784   imul edx,edx,3F 6BD23F
0160:271787   mov  edi,eax 89C7
0160:271789   mov  eax,edx 89D0
0160:27178B   sar  edx,1F C1FA1F
0160:27178E   idiv ebp F7FD
0160:271790   mov  edx,ebx 89DA
0160:271792   sar  edx,06 C1FA06
0160:271795   imul edx,edx,3F 6BD23F
0160:271798   mov  dword [esp+001C],00000003 C744241C03000000
0160:2717A0   mov  esi,eax 89C6
0160:2717A2   mov  eax,edx 89D0
0160:2717A4   sar  edx,1F C1FA1F
0160:2717A7   idiv dword [esp+001C] F77C241C
0160:2717AB   mov  edx,eax 89C2
0160:2717AD   mov  eax,esi 89F0
0160:2717AF   shl  edx,10 C1E210
0160:2717B2   shl  eax,08 C1E008
0160:2717B5   or   eax,edx 09D0
0160:2717B7   add  ecx,0004 83C104
0160:2717BA   or   eax,edi 09F8
0160:2717BC   inc  ebx 43
0160:2717BD   mov  [ecx+00351CA0],eax 8981A01C3500
0160:2717C3   cmp  ebx,00000100 81FB00010000
0160:2717C9   jl   0027176F ($-5c) 7CA4
0160:2717CB   push 3F99999A 689A99993F
0160:2717D0   push 00000100 6800010000
0160:2717D5   push 00351CA4 68A41C3500
0160:2717DA   call 00271530 ($-2af) E851FDFFFF
0160:2717DF   add  esp,000C 83C40C
0160:2717E2   mov  edx,000003DA BADA030000
0160:2717E7   sub  eax,eax 29C0
0160:2717E9   in   al,dx EC
0160:2717EA   mov  al,11 B011
0160:2717EC   mov  edx,000003C0 BAC0030000
0160:2717F1   out  dx,al EE
0160:2717F2   xor  al,al 30C0
0160:2717F4   out  dx,al EE
0160:2717F5   mov  edx,000003DA BADA030000
0160:2717FA   sub  eax,eax 29C0
0160:2717FC   in   al,dx EC
0160:2717FD   mov  al,20 B020
0160:2717FF   mov  edx,000003C0 BAC0030000
0160:271804   out  dx,al EE
0160:271805   add  esp,0020 83C420
0160:271808   pop  ebp 5D
0160:271809   pop  edi 5F
0160:27180A   pop  esi 5E
0160:27180B   pop  ebx 5B
0160:27180C   ret C3
0160:27180D   lea  eax,[eax] 8D4000
0160:271810   push ebx 53
0160:271811   cmp  dword [002B4908],0000 66833D08492B0000
0160:271819   je   00271835 ($+1a) 741A
0160:27181B   mov  eax,[002B4906] A106492B00
0160:271820   sar  eax,10 C1F810
0160:271823   push eax 50
0160:271824   xor  ebx,ebx 31DB
0160:271826   call 002715EC ($-23f) E8C1FDFFFF
0160:27182B   add  esp,0004 83C404
0160:27182E   mov  [002B4908],bx 66891D08492B00
0160:271835   pop  ebx 5B
0160:271836   ret C3
0160:271837   nop 90
0160:271838   mov  eax,[esp+0004] 8B442404
0160:27183C   jmp  00281D07 ($+104c6) E9C6040100
0160:271841   lea  eax,[eax] 8D4000
0160:271844   jmp  00281CE0 ($+10497) E997040100
0160:271849   lea  eax,[eax] 8D4000
0160:27184C   push ebx 53
0160:27184D   mov  ebx,[esp+000C] 8B5C240C
0160:271851   mov  eax,00000F02 B8020F0000
0160:271856   mov  edx,000003C4 BAC4030000
0160:27185B   out  dx,ax 66EF
0160:27185D   mov  edx,ebx 89DA
0160:27185F   mov  eax,ebx 89D8
0160:271861   shl  edx,18 C1E218
0160:271864   shl  eax,10 C1E010
0160:271867   or   edx,eax 09C2
0160:271869   mov  eax,ebx 89D8
0160:27186B   shl  eax,08 C1E008
0160:27186E   or   eax,edx 09D0
0160:271870   or   ebx,eax 09C3
0160:271872   mov  eax,[esp+0008] 8B442408
0160:271876   mov  eax,[002B48F8+eax*4] 8B0485F8482B00
0160:27187D   xor  edx,edx 31D2
0160:27187F   and  al,80 2480
0160:271881   add  eax,0020 83C020
0160:271884   mov  [eax-0020],ebx 8958E0
0160:271887   mov  [eax-001C],ebx 8958E4
0160:27188A   mov  [eax-0018],ebx 8958E8
0160:27188D   mov  [eax-0014],ebx 8958EC
0160:271890   mov  [eax-0010],ebx 8958F0
0160:271893   mov  [eax-000C],ebx 8958F4
0160:271896   mov  [eax-0008],ebx 8958F8
0160:271899   inc  edx 42
0160:27189A   mov  [eax-0004],ebx 8958FC
0160:27189D   cmp  edx,000003E8 81FAE8030000
0160:2718A3   jl   00271881 ($-24) 7CDC
0160:2718A5   pop  ebx 5B
0160:2718A6   ret C3
0160:2718A7   nop 90
0160:2718A8   push ebx 53
0160:2718A9   mov  ebx,[esp+000C] 8B5C240C
0160:2718AD   mov  eax,[ebx] 8B03
0160:2718AF   mov  al,[eax+003520A4] 8A80A4203500
0160:2718B5   and  eax,000000FF 25FF000000
0160:2718BA   shl  eax,08 C1E008
0160:2718BD   mov  edx,000003C4 BAC4030000
0160:2718C2   or   al,02 0C02
0160:2718C4   out  dx,ax 66EF
0160:2718C6   mov  eax,[ebx] 8B03
0160:2718C8   mov  edx,[esp+0008] 8B542408
0160:2718CC   sar  eax,02 C1F802
0160:2718CF   mov  edx,[002B48F8+edx*4] 8B1495F8482B00
0160:2718D6   add  edx,eax 01C2
0160:2718D8   mov  eax,[ebx+0004] 8B4304
0160:2718DB   mov  eax,[003521E2+eax*2] 8B0445E2213500
0160:2718E2   sar  eax,10 C1F810
0160:2718E5   add  eax,edx 01D0
0160:2718E7   mov  dl,[esp+0010] 8A542410
0160:2718EB   mov  [eax],dl 8810
0160:2718ED   pop  ebx 5B
0160:2718EE   ret C3
0160:2718EF   nop 90
0160:2718F0   push ebx 53
0160:2718F1   push esi 56
0160:2718F2   push edi 57
0160:2718F3   push ebp 55
0160:2718F4   sub  esp,0024 83EC24
0160:2718F7   mov  eax,[esp+003C] 8B44243C
0160:2718FB   mov  ebx,[eax+0004] 8B5804
0160:2718FE   mov  edx,[eax] 8B10
0160:271900   mov  [esp],ebx 891C24
0160:271903   mov  ebx,[eax+0008] 8B5808
0160:271906   mov  eax,[eax+000C] 8B400C
0160:271909   mov  [esp+000C],eax 8944240C
0160:27190D   mov  eax,[esp+0038] 8B442438
0160:271911   mov  [esp+0004],edx 89542404
0160:271915   mov  eax,[002B48F8+eax*4] 8B0485F8482B00
0160:27191C   mov  edx,000003C4 BAC4030000
0160:271921   mov  [esp+0020],eax 89442420
0160:271925   mov  al,02 B002
0160:271927   out  dx,al EE
0160:271928   mov  edx,[esp+0004] 8B542404
0160:27192C   mov  [esp+0008],ebx 895C2408
0160:271930   sub  ebx,edx 29D3
0160:271932   push ebx 53
0160:271933   call 00281D1F ($+103e7) E8E7030100
0160:271938   add  esp,0004 83C404
0160:27193B   lea  edi,[00000000+eax*2] 8D3C4500000000
0160:271942   test ebx,ebx 85DB
0160:271944   jle  0027194D ($+7) 7E07
0160:271946   mov  eax,00000001 B801000000
0160:27194B   jmp  short 00271956 ($+9) EB09
0160:27194D   setge ax 0F9DC0
0160:271950   and  eax,000000FF 25FF000000
0160:271955   dec  eax 48
0160:271956   mov  ebx,[esp+000C] 8B5C240C
0160:27195A   sub  ebx,[esp] 2B1C24
0160:27195D   push ebx 53
0160:27195E   mov  [esp+0014],eax 89442414
0160:271962   call 00281D1F ($+103b8) E8B8030100
0160:271967   add  esp,0004 83C404
0160:27196A   lea  ebp,[00000000+eax*2] 8D2C4500000000
0160:271971   test ebx,ebx 85DB
0160:271973   jle  0027197C ($+7) 7E07
0160:271975   mov  eax,00000001 B801000000
0160:27197A   jmp  short 00271985 ($+9) EB09
0160:27197C   setge ax 0F9DC0
0160:27197F   and  eax,000000FF 25FF000000
0160:271984   dec  eax 48
0160:271985   mov  ebx,[esp+0004] 8B5C2404
0160:271989   mov  ecx,[esp] 8B0C24
0160:27198C   mov  [esp+0014],eax 89442414
0160:271990   cmp  edi,ebp 39EF
0160:271992   jle  00271A01 ($+6d) 7E6D
0160:271994   mov  esi,edi 89FE
0160:271996   mov  eax,ebp 89E8
0160:271998   sar  esi,1 D1FE
0160:27199A   sub  eax,esi 29F0
0160:27199C   mov  esi,eax 89C6
0160:27199E   mov  eax,[003521E2+ecx*2] 8B044DE2213500
0160:2719A5   mov  edx,[esp+0020] 8B542420
0160:2719A9   sar  eax,10 C1F810
0160:2719AC   add  edx,eax 01C2
0160:2719AE   mov  [esp+0018],edx 89542418
0160:2719B2   mov  edx,000003C5 BAC5030000
0160:2719B7   mov  al,[ebx+003520A4] 8A83A4203500
0160:2719BD   out  dx,al EE
0160:2719BE   mov  eax,ebx 89D8
0160:2719C0   mov  edx,[esp+0018] 8B542418
0160:2719C4   sar  eax,02 C1F802
0160:2719C7   add  eax,edx 01D0
0160:2719C9   mov  dl,[esp+0040] 8A542440
0160:2719CD   mov  [eax],dl 8810
0160:2719CF   cmp  ebx,[esp+0008] 3B5C2408
0160:2719D3   jz   00271A71 ($+98) 0F8498000000
0160:2719D9   test esi,esi 85F6
0160:2719DB   jl   002719F7 ($+1a) 7C1A
0160:2719DD   add  ecx,[esp+0014] 034C2414
0160:2719E1   mov  eax,[003521E2+ecx*2] 8B044DE2213500
0160:2719E8   mov  edx,[esp+0020] 8B542420
0160:2719EC   sar  eax,10 C1F810
0160:2719EF   add  edx,eax 01C2
0160:2719F1   sub  esi,edi 29FE
0160:2719F3   mov  [esp+0018],edx 89542418
0160:2719F7   mov  eax,[esp+0010] 8B442410
0160:2719FB   add  esi,ebp 01EE
0160:2719FD   add  ebx,eax 01C3
0160:2719FF   jmp  short 002719B2 ($-4f) EBB1
0160:271A01   mov  esi,ebp 89EE
0160:271A03   mov  eax,edi 89F8
0160:271A05   sar  esi,1 D1FE
0160:271A07   sub  eax,esi 29F0
0160:271A09   mov  esi,eax 89C6
0160:271A0B   mov  eax,ebx 89D8
0160:271A0D   mov  edx,[esp+0020] 8B542420
0160:271A11   sar  eax,02 C1F802
0160:271A14   add  edx,eax 01C2
0160:271A16   mov  [esp+001C],edx 8954241C
0160:271A1A   mov  al,[ebx+003520A4] 8A83A4203500
0160:271A20   mov  edx,000003C5 BAC5030000
0160:271A25   out  dx,al EE
0160:271A26   mov  eax,[003521E2+ecx*2] 8B044DE2213500
0160:271A2D   mov  edx,[esp+001C] 8B54241C
0160:271A31   sar  eax,10 C1F810
0160:271A34   add  eax,edx 01D0
0160:271A36   mov  dl,[esp+0040] 8A542440
0160:271A3A   mov  [eax],dl 8810
0160:271A3C   cmp  ecx,[esp+000C] 3B4C240C
0160:271A40   je   00271A71 ($+2f) 742F
0160:271A42   test esi,esi 85F6
0160:271A44   jl   00271A67 ($+21) 7C21
0160:271A46   add  ebx,[esp+0010] 035C2410
0160:271A4A   mov  edx,000003C5 BAC5030000
0160:271A4F   mov  al,[ebx+003520A4] 8A83A4203500
0160:271A55   out  dx,al EE
0160:271A56   mov  eax,ebx 89D8
0160:271A58   mov  edx,[esp+0020] 8B542420
0160:271A5C   sar  eax,02 C1F802
0160:271A5F   add  edx,eax 01C2
0160:271A61   sub  esi,ebp 29EE
0160:271A63   mov  [esp+001C],edx 8954241C
0160:271A67   mov  eax,[esp+0014] 8B442414
0160:271A6B   add  esi,edi 01FE
0160:271A6D   add  ecx,eax 01C1
0160:271A6F   jmp  short 00271A26 ($-4b) EBB5
0160:271A71   add  esp,0024 83C424
0160:271A74   pop  ebp 5D
0160:271A75   pop  edi 5F
0160:271A76   pop  esi 5E
0160:271A77   pop  ebx 5B
0160:271A78   ret C3
0160:271A79   lea  eax,[eax] 8D4000
0160:271A7C   push ebx 53
0160:271A7D   push esi 56
0160:271A7E   push edi 57
0160:271A7F   push ebp 55
0160:271A80   sub  esp,000C 83EC0C
0160:271A83   mov  ebp,[esp+0024] 8B6C2424
0160:271A87   mov  eax,[ebp+0004] 8B4504
0160:271A8A   mov  [esp+0008],eax 89442408
0160:271A8E   mov  eax,[ebp+0008] 8B4508
0160:271A91   mov  [esp+0004],eax 89442404
0160:271A95   mov  eax,[esp+0020] 8B442420
0160:271A99   mov  ebx,[ebp] 8B5D00
0160:271A9C   mov  ebp,[ebp+000C] 8B6D0C
0160:271A9F   mov  eax,[002B48F8+eax*4] 8B0485F8482B00
0160:271AA6   mov  edx,[esp+0004] 8B542404
0160:271AAA   mov  [esp],eax 890424
0160:271AAD   cmp  ebx,edx 39D3
0160:271AAF   jle  00271AB9 ($+8) 7E08
0160:271AB1   mov  eax,ebx 89D8
0160:271AB3   mov  ebx,edx 89D3
0160:271AB5   mov  [esp+0004],eax 89442404
0160:271AB9   mov  ecx,[esp+0008] 8B4C2408
0160:271ABD   cmp  ebp,ecx 39CD
0160:271ABF   jge  00271AC5 ($+4) 7D04
0160:271AC1   mov  ebx,ebp 89EB
0160:271AC3   mov  ebp,ecx 89CD
0160:271AC5   mov  al,02 B002
0160:271AC7   mov  edx,000003C4 BAC4030000
0160:271ACC   mov  esi,[esp+0004] 8B742404
0160:271AD0   out  dx,al EE
0160:271AD1   mov  edi,ebx 89DF
0160:271AD3   cmp  ebx,esi 39F3
0160:271AD5   jg   00271B1F ($+48) 7F48
0160:271AD7   mov  cl,[esp+0028] 8A4C2428
0160:271ADB   mov  edx,000003C5 BAC5030000
0160:271AE0   mov  al,[edi+003520A4] 8A87A4203500
0160:271AE6   out  dx,al EE
0160:271AE7   mov  esi,edi 89FE
0160:271AE9   mov  edx,[esp] 8B1424
0160:271AEC   sar  esi,02 C1FE02
0160:271AEF   mov  ebx,[esp+0008] 8B5C2408
0160:271AF3   add  esi,edx 01D6
0160:271AF5   cmp  ebp,ebx 39DD
0160:271AF7   jl   00271B16 ($+1d) 7C1D
0160:271AF9   lea  eax,[ebx+ebx] 8D041B
0160:271AFC   lea  ebx,[00000000+ebp*2] 8D1C6D00000000
0160:271B03   mov  edx,[eax+003521E2] 8B90E2213500
0160:271B09   sar  edx,10 C1FA10
0160:271B0C   add  eax,0002 83C002
0160:271B0F   mov  [edx+esi],cl 880C32
0160:271B12   cmp  eax,ebx 39D8
0160:271B14   jle  00271B03 ($-13) 7EED
0160:271B16   mov  eax,[esp+0004] 8B442404
0160:271B1A   inc  edi 47
0160:271B1B   cmp  edi,eax 39C7
0160:271B1D   jle  00271ADB ($-44) 7EBC
0160:271B1F   add  esp,000C 83C40C
0160:271B22   pop  ebp 5D
0160:271B23   pop  edi 5F
0160:271B24   pop  esi 5E
0160:271B25   pop  ebx 5B
0160:271B26   ret C3
0160:271B27   push ebx 53
0160:271B28   push esi 56
0160:271B29   push edi 57
0160:271B2A   push ebp 55
0160:271B2B   mov  ebp,esp 89E5
0160:271B2D   sub  esp,0000030C 81EC0C030000
0160:271B33   cmp  byte [ebp+001C],00 807D1C00
0160:271B37   jnz  00271C24 ($+e7) 0F85E7000000
0160:271B3D   mov  eax,00352544 B844253500
0160:271B42   push eax 50
0160:271B43   call 00281D2C ($+101e4) E8E4010100
0160:271B48   add  esp,0004 83C404
0160:271B4B   cmp  dword [ebp+0014],0000 837D1400
0160:271B4F   jne  00271B6B ($+1a) 751A
0160:271B51   mov  dword [ebp+0014],00352844 C7451444283500
0160:271B58   push 00000300 6800030000
0160:271B5D   push 0000 6A00
0160:271B5F   mov  eax,[ebp+0014] 8B4514
0160:271B62   push eax 50
0160:271B63   call 0026D250 ($-4918) E8E8B6FFFF
0160:271B68   add  esp,000C 83C40C
0160:271B6B   mov  dword [00352B44],0000 66C705442B35000000
0160:271B74   xor  eax,eax 31C0
0160:271B76   mov  al,[ebp+0018] 8A4518
0160:271B79   cmp  ax,[00352B44] 663B05442B3500
0160:271B80   jge  00271B90 ($+e) 7D0E
0160:271B82   jmp  00271C18 ($+91) E991000000
0160:271B87   inc  dword [00352B44] 66FF05442B3500
0160:271B8E   jmp  short 00271B74 ($-1c) EBE4
0160:271B90   mov  dword [ebp-000C],00000000 C745F400000000
0160:271B97   cmp  dword [ebp-000C],0300 66817DF40003
0160:271B9D   jl   00271BA9 ($+a) 7C0A
0160:271B9F   jmp  short 00271BFF ($+5e) EB5E
0160:271BA1   mov  eax,[ebp-000C] 8B45F4
0160:271BA4   inc  dword [ebp-000C] FF45F4
0160:271BA7   jmp  short 00271B97 ($-12) EBEE
0160:271BA9   movsx eax,[ebp-000C] 0FBF45F4
0160:271BAD   add  eax,[ebp+0014] 034514
0160:271BB0   mov  al,[eax] 8A00
0160:271BB2   xor  ah,ah 30E4
0160:271BB4   movsx edx,[ebp-000C] 0FBF55F4
0160:271BB8   mov  dl,[edx+00352544] 8A9244253500
0160:271BBE   xor  dh,dh 30F6
0160:271BC0   sub  eax,edx 29D0
0160:271BC2   mov  [ebp-0004],eax 8945FC
0160:271BC5   movsx edx,[ebp-0004] 0FBF55FC
0160:271BC9   mov  eax,[00352B42] A1422B3500
0160:271BCE   sar  eax,10 C1F810
0160:271BD1   imul edx,eax 0FAFD0
0160:271BD4   xor  ebx,ebx 31DB
0160:271BD6   mov  bl,[ebp+0018] 8A5D18
0160:271BD9   mov  eax,edx 89D0
0160:271BDB   sar  edx,1F C1FA1F
0160:271BDE   idiv ebx F7FB
0160:271BE0   movsx edx,[ebp-000C] 0FBF55F4
0160:271BE4   mov  dl,[edx+00352544] 8A9244253500
0160:271BEA   and  edx,000000FF 81E2FF000000
0160:271BF0   add  eax,edx 01D0
0160:271BF2   movsx edx,[ebp-000C] 0FBF55F4
0160:271BF6   mov  [edx+ebp-0000030C],al 88842AF4FCFFFF
0160:271BFD   jmp  short 00271BA1 ($-5e) EBA2
0160:271BFF   call 0027B0FC ($+94f8) E8F8940000
0160:271C04   lea  eax,[ebp-0000030C] 8D85F4FCFFFF
0160:271C0A   push eax 50
0160:271C0B   call 00222A90 ($-4f180) E8800EFBFF
0160:271C10   add  esp,0004 83C404
0160:271C13   jmp  00271B87 ($-91) E96FFFFFFF
0160:271C18   mov  byte [002B490C],00 C6050C492B0000
0160:271C1F   jmp  00271D14 ($+f0) E9F0000000
0160:271C24   cmp  byte [002B490C],00 803D0C492B0000
0160:271C2B   jne  00271C68 ($+3b) 753B
0160:271C2D   mov  dword [00352B44],0000 66C705442B35000000
0160:271C36   mov  byte [002B490C],01 C6050C492B0001
0160:271C3D   mov  eax,00352544 B844253500
0160:271C42   push eax 50
0160:271C43   call 00281D2C ($+100e4) E8E4000100
0160:271C48   add  esp,0004 83C404
0160:271C4B   cmp  dword [ebp+0014],0000 837D1400
0160:271C4F   jne  00271C66 ($+15) 7515
0160:271C51   push 00000300 6800030000
0160:271C56   push 0000 6A00
0160:271C58   mov  eax,00352844 B844283500
0160:271C5D   push eax 50
0160:271C5E   call 0026D250 ($-4a13) E8EDB5FFFF
0160:271C63   add  esp,000C 83C40C
0160:271C66   jmp  short 00271C84 ($+1c) EB1C
0160:271C68   inc  dword [00352B44] 66FF05442B3500
0160:271C6F   xor  eax,eax 31C0
0160:271C71   mov  al,[ebp+0018] 8A4518
0160:271C74   cmp  ax,[00352B44] 663B05442B3500
0160:271C7B   jne  00271C84 ($+7) 7507
0160:271C7D   mov  byte [002B490C],00 C6050C492B0000
0160:271C84   cmp  dword [ebp+0014],0000 837D1400
0160:271C88   jne  00271C91 ($+7) 7507
0160:271C8A   mov  dword [ebp+0014],00352844 C7451444283500
0160:271C91   mov  dword [ebp-000C],00000000 C745F400000000
0160:271C98   cmp  dword [ebp-000C],0300 66817DF40003
0160:271C9E   jl   00271CAA ($+a) 7C0A
0160:271CA0   jmp  short 00271D00 ($+5e) EB5E
0160:271CA2   mov  eax,[ebp-000C] 8B45F4
0160:271CA5   inc  dword [ebp-000C] FF45F4
0160:271CA8   jmp  short 00271C98 ($-12) EBEE
0160:271CAA   movsx eax,[ebp-000C] 0FBF45F4
0160:271CAE   add  eax,[ebp+0014] 034514
0160:271CB1   mov  al,[eax] 8A00
0160:271CB3   xor  ah,ah 30E4
0160:271CB5   movsx edx,[ebp-000C] 0FBF55F4
0160:271CB9   mov  dl,[edx+00352544] 8A9244253500
0160:271CBF   xor  dh,dh 30F6
0160:271CC1   sub  eax,edx 29D0
0160:271CC3   mov  [ebp-0004],eax 8945FC
0160:271CC6   movsx edx,[ebp-0004] 0FBF55FC
0160:271CCA   mov  eax,[00352B42] A1422B3500
0160:271CCF   sar  eax,10 C1F810
0160:271CD2   imul edx,eax 0FAFD0
0160:271CD5   xor  ebx,ebx 31DB
0160:271CD7   mov  bl,[ebp+0018] 8A5D18
0160:271CDA   mov  eax,edx 89D0
0160:271CDC   sar  edx,1F C1FA1F
0160:271CDF   idiv ebx F7FB
0160:271CE1   movsx edx,[ebp-000C] 0FBF55F4
0160:271CE5   mov  dl,[edx+00352544] 8A9244253500
0160:271CEB   and  edx,000000FF 81E2FF000000
0160:271CF1   add  eax,edx 01D0
0160:271CF3   movsx edx,[ebp-000C] 0FBF55F4
0160:271CF7   mov  [edx+ebp-0000030C],al 88842AF4FCFFFF
0160:271CFE   jmp  short 00271CA2 ($-5e) EBA2
0160:271D00   call 0027B0FC ($+93f7) E8F7930000
0160:271D05   lea  eax,[ebp-0000030C] 8D85F4FCFFFF
0160:271D0B   push eax 50
0160:271D0C   call 00222A90 ($-4f281) E87F0DFBFF
0160:271D11   add  esp,0004 83C404
0160:271D14   mov  ax,[00352B44] 66A1442B3500
0160:271D1A   mov  [ebp-0008],eax 8945F8
0160:271D1D   mov  eax,[ebp-0008] 8B45F8
0160:271D20   mov  esp,ebp 89EC
0160:271D22   pop  ebp 5D
0160:271D23   pop  edi 5F
0160:271D24   pop  esi 5E
0160:271D25   pop  ebx 5B
0160:271D26   ret C3
0160:271D27   push ebx 53
0160:271D28   push esi 56
0160:271D29   push edi 57
0160:271D2A   push ebp 55
0160:271D2B   mov  ebp,esp 89E5
0160:271D2D   sub  esp,00000000 81EC00000000
0160:271D33   mov  byte [002B490C],00 C6050C492B0000
0160:271D3A   pop  ebp 5D
0160:271D3B   pop  edi 5F
0160:271D3C   pop  esi 5E
0160:271D3D   pop  ebx 5B
0160:271D3E   ret C3
0160:271D3F   push ebx 53
0160:271D40   push esi 56
0160:271D41   push edi 57
0160:271D42   push ebp 55
0160:271D43   mov  ebp,esp 89E5
0160:271D45   sub  esp,00000000 81EC00000000
0160:271D4B   mov  eax,[ebp+0014] 8B4514
0160:271D4E   cmp  dword [eax+001C],0000 83781C00
0160:271D52   je   00271D69 ($+15) 7415
0160:271D54   mov  eax,[ebp+0014] 8B4514
0160:271D57   push eax 50
0160:271D58   call 0027B2F5 ($+9598) E898950000
0160:271D5D   add  esp,0004 83C404
0160:271D60   mov  eax,[ebp+0014] 8B4514
0160:271D63   add  dword [ebp+0014],002C 8345142C
0160:271D67   jmp  short 00271D4B ($-1e) EBE2
0160:271D69   pop  ebp 5D
0160:271D6A   pop  edi 5F
0160:271D6B   pop  esi 5E
0160:271D6C   pop  ebx 5B
0160:271D6D   ret C3
0160:271D6E   push ebx 53
0160:271D6F   push esi 56
0160:271D70   push edi 57
0160:271D71   push ebp 55
0160:271D72   mov  ebp,esp 89E5
0160:271D74   sub  esp,00000038 81EC38000000
0160:271D7A   mov  dword [ebp-001C],00000F00 C745E4000F0000
0160:271D81   lea  eax,[ebp-0038] 8D45C8
0160:271D84   push eax 50
0160:271D85   lea  eax,[ebp-001C] 8D45E4
0160:271D88   push eax 50
0160:271D89   push 0010 6A10
0160:271D8B   call 00279D52 ($+7fc2) E8C27F0000
0160:271D90   add  esp,000C 83C40C
0160:271D93   cmp  dword [00351662],0000 66833D6216350000
0160:271D9B   jne  00271DA8 ($+b) 750B
0160:271D9D   xor  ah,ah 30E4
0160:271D9F   mov  al,[ebp-0038] 8A45C8
0160:271DA2   mov  [00351662],ax 66A362163500
0160:271DA8   mov  dword [ebp-001C],00000013 C745E413000000
0160:271DAF   mov  dword [0035162C],00000140 C7052C16350040010000
0160:271DB9   mov  dword [00351624],000000C8 C70524163500C8000000
0160:271DC3   lea  eax,[ebp-0038] 8D45C8
0160:271DC6   push eax 50
0160:271DC7   lea  eax,[ebp-001C] 8D45E4
0160:271DCA   push eax 50
0160:271DCB   push 0010 6A10
0160:271DCD   call 00279D52 ($+7f80) E8807F0000
0160:271DD2   add  esp,000C 83C40C
0160:271DD5   mov  eax,[ebp+0014] 8B4514
0160:271DD8   push eax 50
0160:271DD9   call 00222A90 ($-4f34e) E8B20CFBFF
0160:271DDE   add  esp,0004 83C404
0160:271DE1   call 0026E12F ($-3cb7) E849C3FFFF
0160:271DE6   mov  eax,000000C8 B8C8000000
0160:271DEB   push eax 50
0160:271DEC   mov  eax,00000140 B840010000
0160:271DF1   push eax 50
0160:271DF2   xor  eax,eax 31C0
0160:271DF4   push eax 50
0160:271DF5   xor  eax,eax 31C0
0160:271DF7   push eax 50
0160:271DF8   call 00281D50 ($+ff53) E853FF0000
0160:271DFD   add  esp,0010 83C410
0160:271E00   mov  esp,ebp 89EC
0160:271E02   pop  ebp 5D
0160:271E03   pop  edi 5F
0160:271E04   pop  esi 5E
0160:271E05   pop  ebx 5B
0160:271E06   ret C3
0160:271E07   push ebx 53
0160:271E08   push esi 56
0160:271E09   push edi 57
0160:271E0A   push ebp 55
0160:271E0B   mov  ebp,esp 89E5
0160:271E0D   sub  esp,00000038 81EC38000000
0160:271E13   mov  dword [ebp-001C],00000F00 C745E4000F0000
0160:271E1A   lea  eax,[ebp-0038] 8D45C8
0160:271E1D   push eax 50
0160:271E1E   lea  eax,[ebp-001C] 8D45E4
0160:271E21   push eax 50
0160:271E22   push 0010 6A10
0160:271E24   call 00279D52 ($+7f29) E8297F0000
0160:271E29   add  esp,000C 83C40C
0160:271E2C   cmp  dword [00351662],0000 66833D6216350000
0160:271E34   jne  00271E41 ($+b) 750B
0160:271E36   xor  ah,ah 30E4
0160:271E38   mov  al,[ebp-0038] 8A45C8
0160:271E3B   mov  [00351662],ax 66A362163500
0160:271E41   mov  dword [0035162C],00000280 C7052C16350080020000
0160:271E4B   mov  dword [00351624],000001E0 C70524163500E0010000
0160:271E55   mov  eax,00000101 B801010000
0160:271E5A   push eax 50
0160:271E5B   call 0027A4BA ($+865a) E85A860000
0160:271E60   add  esp,0004 83C404
0160:271E63   mov  eax,[ebp+0014] 8B4514
0160:271E66   push eax 50
0160:271E67   call 00222A90 ($-4f3dc) E8240CFBFF
0160:271E6C   add  esp,0004 83C404
0160:271E6F   call 0026E12F ($-3d45) E8BBC2FFFF
0160:271E74   mov  eax,000001E0 B8E0010000
0160:271E79   push eax 50
0160:271E7A   mov  eax,00000280 B880020000
0160:271E7F   push eax 50
0160:271E80   xor  eax,eax 31C0
0160:271E82   push eax 50
0160:271E83   xor  eax,eax 31C0
0160:271E85   push eax 50
0160:271E86   call 00281D50 ($+fec5) E8C5FE0000
0160:271E8B   add  esp,0010 83C410
0160:271E8E   mov  esp,ebp 89EC
0160:271E90   pop  ebp 5D
0160:271E91   pop  edi 5F
0160:271E92   pop  esi 5E
0160:271E93   pop  ebx 5B
0160:271E94   ret C3
0160:271E95   add  [eax],al 0000
0160:271E97   add  [eax],al 0000
0160:271E99   add  [eax],al 0000
0160:271E9B   add  [eax],al 0000
0160:271E9D   add  [eax],al 0000
0160:271E9F   add  [ebx+0056],dl 005356
0160:271EA2   push edi 57
0160:271EA3   push ebp 55
0160:271EA4   mov  ebp,esp 89E5
0160:271EA6   sub  esp,00000000 81EC00000000
0160:271EAC   mov  eax,[ebp+0014] 8B4514
0160:271EAF   mov  [00352BE4],eax A3E42B3500
0160:271EB4   mov  eax,[ebp+0018] 8B4518
0160:271EB7   push eax 50
0160:271EB8   mov  eax,002A3228 B828322A00
0160:271EBD   push eax 50
0160:271EBE   mov  eax,002B4910 B810492B00
0160:271EC3   push eax 50
0160:271EC4   call 0026F3D5 ($-2af4) E80CD5FFFF
0160:271EC9   add  esp,000C 83C40C
0160:271ECC   mov  byte [002B49A0],01 C605A0492B0001
0160:271ED3   pop  ebp 5D
0160:271ED4   pop  edi 5F
0160:271ED5   pop  esi 5E
0160:271ED6   pop  ebx 5B
0160:271ED7   ret C3
0160:271ED8   lea  eax,[eax+00000000] 8D8000000000
0160:271EDE   mov  edx,edx 8BD2
0160:271EE0   push ebx 53
0160:271EE1   push esi 56
0160:271EE2   push edi 57
0160:271EE3   push ebp 55
0160:271EE4   mov  ebp,esp 89E5
0160:271EE6   sub  esp,00000008 81EC08000000
0160:271EEC   lea  eax,[ebp-0008] 8D45F8
0160:271EEF   push eax 50
0160:271EF0   push dword [00352BE4] FF35E42B3500
0160:271EF6   call 0026D1CA ($-4d31) E8CFB2FFFF
0160:271EFB   add  esp,0008 83C408
0160:271EFE   mov  eax,002B4910 B810492B00
0160:271F03   push eax 50
0160:271F04   call 00281DA5 ($+fe9c) E89CFE0000
0160:271F09   add  esp,0004 83C404
0160:271F0C   mov  [ebp-0004],al 8845FC
0160:271F0F   mov  al,[ebp-0004] 8A45FC
0160:271F12   mov  esp,ebp 89EC
0160:271F14   pop  ebp 5D
0160:271F15   pop  edi 5F
0160:271F16   pop  esi 5E
0160:271F17   pop  ebx 5B
0160:271F18   ret C3
0160:271F19   lea  eax,[eax+00000000] 8D8000000000
0160:271F1F   nop 90
0160:271F20   push ebx 53
0160:271F21   push esi 56
0160:271F22   push edi 57
0160:271F23   push ebp 55
0160:271F24   mov  ebp,esp 89E5
0160:271F26   sub  esp,00000004 81EC04000000
0160:271F2C   lea  eax,[ebp-0004] 8D45FC
0160:271F2F   push eax 50
0160:271F30   push dword [00352BE0] FF35E02B3500
0160:271F36   call 0026D1CA ($-4d71) E88FB2FFFF
0160:271F3B   add  esp,0008 83C408
0160:271F3E   mov  eax,00352B50 B8502B3500
0160:271F43   push eax 50
0160:271F44   call 00281DA5 ($+fe5c) E85CFE0000
0160:271F49   add  esp,0004 83C404
0160:271F4C   mov  esp,ebp 89EC
0160:271F4E   pop  ebp 5D
0160:271F4F   pop  edi 5F
0160:271F50   pop  esi 5E
0160:271F51   pop  ebx 5B
0160:271F52   ret C3
0160:271F53   lea  eax,[eax+00000000] 8D8000000000
0160:271F59   lea  edx,[edx+00000000] 8D9200000000
0160:271F5F   nop 90
0160:271F60   push ebx 53
0160:271F61   push esi 56
0160:271F62   push edi 57
0160:271F63   push ebp 55
0160:271F64   mov  ebp,esp 89E5
0160:271F66   sub  esp,00000004 81EC04000000
0160:271F6C   push 0000 6A00
0160:271F6E   push 0000 6A00
0160:271F70   call 00281DC7 ($+fe52) E852FE0000
0160:271F75   add  esp,0008 83C408
0160:271F78   mov  [ebp-0004],eax 8945FC
0160:271F7B   mov  eax,[ebp-0004] 8B45FC
0160:271F7E   add  eax,0002 83C002
0160:271F81   push eax 50
0160:271F82   mov  eax,002A3228 B828322A00
0160:271F87   push eax 50
0160:271F88   mov  eax,00352B50 B8502B3500
0160:271F8D   push eax 50
0160:271F8E   call 0026F3D5 ($-2bbe) E842D4FFFF
0160:271F93   add  esp,000C 83C40C
0160:271F96   mov  eax,[ebp-0004] 8B45FC
0160:271F99   push eax 50
0160:271F9A   call 00281E6B ($+fecc) E8CCFE0000
0160:271F9F   add  esp,0004 83C404
0160:271FA2   mov  eax,00352BE0 B8E02B3500
0160:271FA7   push eax 50
0160:271FA8   call 0026D1B2 ($-4dfb) E805B2FFFF
0160:271FAD   add  esp,0004 83C404
0160:271FB0   cmp  byte [002B49A0],00 803DA0492B0000
0160:271FB7   jne  00271FC3 ($+a) 750A
0160:271FB9   mov  eax,[00352BE0] A1E02B3500
0160:271FBE   mov  [00352BE4],eax A3E42B3500
0160:271FC3   mov  esp,ebp 89EC
0160:271FC5   pop  ebp 5D
0160:271FC6   pop  edi 5F
0160:271FC7   pop  esi 5E
0160:271FC8   pop  ebx 5B
0160:271FC9   ret C3
0160:271FCA   add  [eax],al 0000
0160:271FCC   add  [eax],al 0000
0160:271FCE   add  [eax],al 0000
0160:271FD0   push ebx 53
0160:271FD1   push esi 56
0160:271FD2   push edi 57
0160:271FD3   push ebp 55
0160:271FD4   mov  ebp,esp 89E5
0160:271FD6   sub  esp,00000000 81EC00000000
0160:271FDC   call 0026E290 ($-3d51) E8AFC2FFFF
0160:271FE1   call 0026E970 ($-3676) E88AC9FFFF
0160:271FE6   mov  eax,002A322C B82C322A00
0160:271FEB   push eax 50
0160:271FEC   mov  eax,00351AB0 B8B01A3500
0160:271FF1   push eax 50
0160:271FF2   call 00279F5D ($+7f66) E8667F0000
0160:271FF7   add  esp,0008 83C408
0160:271FFA   test eax,eax 85C0
0160:271FFC   jne  00272003 ($+5) 7505
0160:271FFE   call 00272010 ($+d) E80D000000
0160:272003   pop  ebp 5D
0160:272004   pop  edi 5F
0160:272005   pop  esi 5E
0160:272006   pop  ebx 5B
0160:272007   ret C3
0160:272008   lea  eax,[eax+00000000] 8D8000000000
0160:27200E   mov  edx,edx 8BD2
0160:272010   push ebx 53
0160:272011   push esi 56
0160:272012   push edi 57
0160:272013   push ebp 55
0160:272014   mov  ebp,esp 89E5
0160:272016   sub  esp,00000004 81EC04000000
0160:27201C   mov  ax,[00351B30] 66A1301B3500
0160:272022   mov  [ebp-0004],eax 8945FC
0160:272025   cmp  dword [ebp-0004],0220 66817DFC2002
0160:27202B   jnz  00272410 ($+3df) 0F85DF030000
0160:272031   push 0030 6A30
0160:272033   movsx eax,[ebp-0004] 0FBF45FC
0160:272037   add  eax,0004 83C004
0160:27203A   push eax 50
0160:27203B   call 00281ED7 ($+fe97) E897FE0000
0160:272040   add  esp,0008 83C408
0160:272043   movsx eax,[ebp-0004] 0FBF45FC
0160:272047   add  eax,0005 83C005
0160:27204A   push eax 50
0160:27204B   call 00281EE1 ($+fe91) E891FE0000
0160:272050   add  esp,0004 83C404
0160:272053   shr  eax,03 C1E803
0160:272056   mov  [002B49A4],ax 66A3A4492B00
0160:27205C   push 0031 6A31
0160:27205E   movsx eax,[ebp-0004] 0FBF45FC
0160:272062   add  eax,0004 83C004
0160:272065   push eax 50
0160:272066   call 00281ED7 ($+fe6c) E86CFE0000
0160:27206B   add  esp,0008 83C408
0160:27206E   movsx eax,[ebp-0004] 0FBF45FC
0160:272072   add  eax,0005 83C005
0160:272075   push eax 50
0160:272076   call 00281EE1 ($+fe66) E866FE0000
0160:27207B   add  esp,0004 83C404
0160:27207E   shr  eax,03 C1E803
0160:272081   mov  [002B49A6],ax 66A3A6492B00
0160:272087   push 0032 6A32
0160:272089   movsx eax,[ebp-0004] 0FBF45FC
0160:27208D   add  eax,0004 83C004
0160:272090   push eax 50
0160:272091   call 00281ED7 ($+fe41) E841FE0000
0160:272096   add  esp,0008 83C408
0160:272099   movsx eax,[ebp-0004] 0FBF45FC
0160:27209D   add  eax,0005 83C005
0160:2720A0   push eax 50
0160:2720A1   call 00281EE1 ($+fe3b) E83BFE0000
0160:2720A6   add  esp,0004 83C404
0160:2720A9   mov  [002B49AC],ax 66A3AC492B00
0160:2720AF   xor  eax,eax 31C0
0160:2720B1   mov  ax,[002B49A4] 66A1A4492B00
0160:2720B7   lea  eax,[00000000+eax*8] 8D04C500000000
0160:2720BE   sub  eax,0020 83E820
0160:2720C1   push eax 50
0160:2720C2   movsx eax,[ebp-0004] 0FBF45FC
0160:2720C6   add  eax,0005 83C005
0160:2720C9   push eax 50
0160:2720CA   call 00281ED7 ($+fe08) E808FE0000
0160:2720CF   add  esp,0008 83C408
0160:2720D2   push 0033 6A33
0160:2720D4   movsx eax,[ebp-0004] 0FBF45FC
0160:2720D8   add  eax,0004 83C004
0160:2720DB   push eax 50
0160:2720DC   call 00281ED7 ($+fdf6) E8F6FD0000
0160:2720E1   add  esp,0008 83C408
0160:2720E4   movsx eax,[ebp-0004] 0FBF45FC
0160:2720E8   add  eax,0005 83C005
0160:2720EB   push eax 50
0160:2720EC   call 00281EE1 ($+fdf0) E8F0FD0000
0160:2720F1   add  esp,0004 83C404
0160:2720F4   mov  [002B49AE],ax 66A3AE492B00
0160:2720FA   xor  eax,eax 31C0
0160:2720FC   mov  ax,[002B49A6] 66A1A6492B00
0160:272102   lea  eax,[00000000+eax*8] 8D04C500000000
0160:272109   sub  eax,0020 83E820
0160:27210C   push eax 50
0160:27210D   movsx eax,[ebp-0004] 0FBF45FC
0160:272111   add  eax,0005 83C005
0160:272114   push eax 50
0160:272115   call 00281ED7 ($+fdbd) E8BDFD0000
0160:27211A   add  esp,0008 83C408
0160:27211D   push 0044 6A44
0160:27211F   movsx eax,[ebp-0004] 0FBF45FC
0160:272123   add  eax,0004 83C004
0160:272126   push eax 50
0160:272127   call 00281ED7 ($+fdab) E8ABFD0000
0160:27212C   add  esp,0008 83C408
0160:27212F   movsx eax,[ebp-0004] 0FBF45FC
0160:272133   add  eax,0005 83C005
0160:272136   push eax 50
0160:272137   call 00281EE1 ($+fda5) E8A5FD0000
0160:27213C   add  esp,0004 83C404
0160:27213F   mov  [002B49B0],ax 66A3B0492B00
0160:272145   push 0060 6A60
0160:272147   movsx eax,[ebp-0004] 0FBF45FC
0160:27214B   add  eax,0005 83C005
0160:27214E   push eax 50
0160:27214F   call 00281ED7 ($+fd83) E883FD0000
0160:272154   add  esp,0008 83C408
0160:272157   push 0045 6A45
0160:272159   movsx eax,[ebp-0004] 0FBF45FC
0160:27215D   add  eax,0004 83C004
0160:272160   push eax 50
0160:272161   call 00281ED7 ($+fd71) E871FD0000
0160:272166   add  esp,0008 83C408
0160:272169   movsx eax,[ebp-0004] 0FBF45FC
0160:27216D   add  eax,0005 83C005
0160:272170   push eax 50
0160:272171   call 00281EE1 ($+fd6b) E86BFD0000
0160:272176   add  esp,0004 83C404
0160:272179   mov  [002B49B2],ax 66A3B2492B00
0160:27217F   push 0060 6A60
0160:272181   movsx eax,[ebp-0004] 0FBF45FC
0160:272185   add  eax,0005 83C005
0160:272188   push eax 50
0160:272189   call 00281ED7 ($+fd49) E849FD0000
0160:27218E   add  esp,0008 83C408
0160:272191   push 0046 6A46
0160:272193   movsx eax,[ebp-0004] 0FBF45FC
0160:272197   add  eax,0004 83C004
0160:27219A   push eax 50
0160:27219B   call 00281ED7 ($+fd37) E837FD0000
0160:2721A0   add  esp,0008 83C408
0160:2721A3   movsx eax,[ebp-0004] 0FBF45FC
0160:2721A7   add  eax,0005 83C005
0160:2721AA   push eax 50
0160:2721AB   call 00281EE1 ($+fd31) E831FD0000
0160:2721B0   add  esp,0004 83C404
0160:2721B3   mov  [002B49B4],ax 66A3B4492B00
0160:2721B9   push 0078 6A78
0160:2721BB   movsx eax,[ebp-0004] 0FBF45FC
0160:2721BF   add  eax,0005 83C005
0160:2721C2   push eax 50
0160:2721C3   call 00281ED7 ($+fd0f) E80FFD0000
0160:2721C8   add  esp,0008 83C408
0160:2721CB   push 0047 6A47
0160:2721CD   movsx eax,[ebp-0004] 0FBF45FC
0160:2721D1   add  eax,0004 83C004
0160:2721D4   push eax 50
0160:2721D5   call 00281ED7 ($+fcfd) E8FDFC0000
0160:2721DA   add  esp,0008 83C408
0160:2721DD   movsx eax,[ebp-0004] 0FBF45FC
0160:2721E1   add  eax,0005 83C005
0160:2721E4   push eax 50
0160:2721E5   call 00281EE1 ($+fcf7) E8F7FC0000
0160:2721EA   add  esp,0004 83C404
0160:2721ED   mov  [002B49B6],ax 66A3B6492B00
0160:2721F3   push 0078 6A78
0160:2721F5   movsx eax,[ebp-0004] 0FBF45FC
0160:2721F9   add  eax,0005 83C005
0160:2721FC   push eax 50
0160:2721FD   call 00281ED7 ($+fcd5) E8D5FC0000
0160:272202   add  esp,0008 83C408
0160:272205   mov  eax,002A3238 B838322A00
0160:27220A   push eax 50
0160:27220B   mov  eax,00351BE0 B8E01B3500
0160:272210   push eax 50
0160:272211   call 00279F5D ($+7d47) E8477D0000
0160:272216   add  esp,0008 83C408
0160:272219   test eax,eax 85C0
0160:27221B   jnz  002722BC ($+9b) 0F859B000000
0160:272221   push 0034 6A34
0160:272223   movsx eax,[ebp-0004] 0FBF45FC
0160:272227   add  eax,0004 83C004
0160:27222A   push eax 50
0160:27222B   call 00281ED7 ($+fca7) E8A7FC0000
0160:272230   add  esp,0008 83C408
0160:272233   movsx eax,[ebp-0004] 0FBF45FC
0160:272237   add  eax,0005 83C005
0160:27223A   push eax 50
0160:27223B   call 00281EE1 ($+fca1) E8A1FC0000
0160:272240   add  esp,0004 83C404
0160:272243   mov  [002B49A8],ax 66A3A8492B00
0160:272249   xor  eax,eax 31C0
0160:27224B   mov  ax,[002B49A4] 66A1A4492B00
0160:272251   lea  eax,[00000000+eax*8] 8D04C500000000
0160:272258   sub  eax,0018 83E818
0160:27225B   push eax 50
0160:27225C   movsx eax,[ebp-0004] 0FBF45FC
0160:272260   add  eax,0005 83C005
0160:272263   push eax 50
0160:272264   call 00281ED7 ($+fc6e) E86EFC0000
0160:272269   add  esp,0008 83C408
0160:27226C   push 0035 6A35
0160:27226E   movsx eax,[ebp-0004] 0FBF45FC
0160:272272   add  eax,0004 83C004
0160:272275   push eax 50
0160:272276   call 00281ED7 ($+fc5c) E85CFC0000
0160:27227B   add  esp,0008 83C408
0160:27227E   movsx eax,[ebp-0004] 0FBF45FC
0160:272282   add  eax,0005 83C005
0160:272285   push eax 50
0160:272286   call 00281EE1 ($+fc56) E856FC0000
0160:27228B   add  esp,0004 83C404
0160:27228E   mov  [002B49AA],ax 66A3AA492B00
0160:272294   xor  eax,eax 31C0
0160:272296   mov  ax,[002B49A6] 66A1A6492B00
0160:27229C   lea  eax,[00000000+eax*8] 8D04C500000000
0160:2722A3   sub  eax,0018 83E818
0160:2722A6   push eax 50
0160:2722A7   movsx eax,[ebp-0004] 0FBF45FC
0160:2722AB   add  eax,0005 83C005
0160:2722AE   push eax 50
0160:2722AF   call 00281ED7 ($+fc23) E823FC0000
0160:2722B4   add  esp,0008 83C408
0160:2722B7   jmp  00272409 ($+14d) E94D010000
0160:2722BC   mov  eax,002A3244 B844322A00
0160:2722C1   push eax 50
0160:2722C2   mov  eax,00351BE0 B8E01B3500
0160:2722C7   push eax 50
0160:2722C8   call 00279F5D ($+7c90) E8907C0000
0160:2722CD   add  esp,0008 83C408
0160:2722D0   test eax,eax 85C0
0160:2722D2   jnz  00272373 ($+9b) 0F859B000000
0160:2722D8   push 0034 6A34
0160:2722DA   movsx eax,[ebp-0004] 0FBF45FC
0160:2722DE   add  eax,0004 83C004
0160:2722E1   push eax 50
0160:2722E2   call 00281ED7 ($+fbf0) E8F0FB0000
0160:2722E7   add  esp,0008 83C408
0160:2722EA   movsx eax,[ebp-0004] 0FBF45FC
0160:2722EE   add  eax,0005 83C005
0160:2722F1   push eax 50
0160:2722F2   call 00281EE1 ($+fbea) E8EAFB0000
0160:2722F7   add  esp,0004 83C404
0160:2722FA   mov  [002B49A8],ax 66A3A8492B00
0160:272300   xor  eax,eax 31C0
0160:272302   mov  ax,[002B49A4] 66A1A4492B00
0160:272308   lea  eax,[00000000+eax*8] 8D04C500000000
0160:27230F   sub  eax,0018 83E818
0160:272312   push eax 50
0160:272313   movsx eax,[ebp-0004] 0FBF45FC
0160:272317   add  eax,0005 83C005
0160:27231A   push eax 50
0160:27231B   call 00281ED7 ($+fbb7) E8B7FB0000
0160:272320   add  esp,0008 83C408
0160:272323   push 0035 6A35
0160:272325   movsx eax,[ebp-0004] 0FBF45FC
0160:272329   add  eax,0004 83C004
0160:27232C   push eax 50
0160:27232D   call 00281ED7 ($+fba5) E8A5FB0000
0160:272332   add  esp,0008 83C408
0160:272335   movsx eax,[ebp-0004] 0FBF45FC
0160:272339   add  eax,0005 83C005
0160:27233C   push eax 50
0160:27233D   call 00281EE1 ($+fb9f) E89FFB0000
0160:272342   add  esp,0004 83C404
0160:272345   mov  [002B49AA],ax 66A3AA492B00
0160:27234B   xor  eax,eax 31C0
0160:27234D   mov  ax,[002B49A6] 66A1A6492B00
0160:272353   lea  eax,[00000000+eax*8] 8D04C500000000
0160:27235A   sub  eax,0018 83E818
0160:27235D   push eax 50
0160:27235E   movsx eax,[ebp-0004] 0FBF45FC
0160:272362   add  eax,0005 83C005
0160:272365   push eax 50
0160:272366   call 00281ED7 ($+fb6c) E86CFB0000
0160:27236B   add  esp,0008 83C408
0160:27236E   jmp  00272409 ($+96) E996000000
0160:272373   push 0034 6A34
0160:272375   movsx eax,[ebp-0004] 0FBF45FC
0160:272379   add  eax,0004 83C004
0160:27237C   push eax 50
0160:27237D   call 00281ED7 ($+fb55) E855FB0000
0160:272382   add  esp,0008 83C408
0160:272385   movsx eax,[ebp-0004] 0FBF45FC
0160:272389   add  eax,0005 83C005
0160:27238C   push eax 50
0160:27238D   call 00281EE1 ($+fb4f) E84FFB0000
0160:272392   add  esp,0004 83C404
0160:272395   mov  [002B49A8],ax 66A3A8492B00
0160:27239B   xor  eax,eax 31C0
0160:27239D   mov  ax,[002B49A4] 66A1A4492B00
0160:2723A3   lea  eax,[00000000+eax*8] 8D04C500000000
0160:2723AA   sub  eax,0008 83E808
0160:2723AD   push eax 50
0160:2723AE   movsx eax,[ebp-0004] 0FBF45FC
0160:2723B2   add  eax,0005 83C005
0160:2723B5   push eax 50
0160:2723B6   call 00281ED7 ($+fb1c) E81CFB0000
0160:2723BB   add  esp,0008 83C408
0160:2723BE   push 0035 6A35
0160:2723C0   movsx eax,[ebp-0004] 0FBF45FC
0160:2723C4   add  eax,0004 83C004
0160:2723C7   push eax 50
0160:2723C8   call 00281ED7 ($+fb0a) E80AFB0000
0160:2723CD   add  esp,0008 83C408
0160:2723D0   movsx eax,[ebp-0004] 0FBF45FC
0160:2723D4   add  eax,0005 83C005
0160:2723D7   push eax 50
0160:2723D8   call 00281EE1 ($+fb04) E804FB0000
0160:2723DD   add  esp,0004 83C404
0160:2723E0   mov  [002B49AA],ax 66A3AA492B00
0160:2723E6   xor  eax,eax 31C0
0160:2723E8   mov  ax,[002B49A6] 66A1A6492B00
0160:2723EE   lea  eax,[00000000+eax*8] 8D04C500000000
0160:2723F5   sub  eax,0008 83E808
0160:2723F8   push eax 50
0160:2723F9   movsx eax,[ebp-0004] 0FBF45FC
0160:2723FD   add  eax,0005 83C005
0160:272400   push eax 50
0160:272401   call 00281ED7 ($+fad1) E8D1FA0000
0160:272406   add  esp,0008 83C408
0160:272409   mov  byte [002B49B8],01 C605B8492B0001
0160:272410   mov  esp,ebp 89EC
0160:272412   pop  ebp 5D
0160:272413   pop  edi 5F
0160:272414   pop  esi 5E
0160:272415   pop  ebx 5B
0160:272416   ret C3
0160:272417   lea  eax,[eax+00000000] 8D8000000000
0160:27241D   lea  edx,[edx] 8D5200
0160:272420   push ebx 53
0160:272421   push esi 56
0160:272422   push edi 57
0160:272423   push ebp 55
0160:272424   mov  ebp,esp 89E5
0160:272426   sub  esp,00000004 81EC04000000
0160:27242C   mov  ax,[00351B30] 66A1301B3500
0160:272432   mov  [ebp-0004],eax 8945FC
0160:272435   push 0032 6A32
0160:272437   movsx eax,[ebp-0004] 0FBF45FC
0160:27243B   add  eax,0004 83C004
0160:27243E   push eax 50
0160:27243F   call 00281ED7 ($+fa93) E893FA0000
0160:272444   add  esp,0008 83C408
0160:272447   xor  eax,eax 31C0
0160:272449   mov  ax,[002B49AC] 66A1AC492B00
0160:27244F   push eax 50
0160:272450   push 00000225 6825020000
0160:272455   call 00281ED7 ($+fa7d) E87DFA0000
0160:27245A   add  esp,0008 83C408
0160:27245D   push 0033 6A33
0160:27245F   movsx eax,[ebp-0004] 0FBF45FC
0160:272463   add  eax,0004 83C004
0160:272466   push eax 50
0160:272467   call 00281ED7 ($+fa6b) E86BFA0000
0160:27246C   add  esp,0008 83C408
0160:27246F   xor  eax,eax 31C0
0160:272471   mov  ax,[002B49AE] 66A1AE492B00
0160:272477   push eax 50
0160:272478   movsx eax,[ebp-0004] 0FBF45FC
0160:27247C   add  eax,0005 83C005
0160:27247F   push eax 50
0160:272480   call 00281ED7 ($+fa52) E852FA0000
0160:272485   add  esp,0008 83C408
0160:272488   push 0034 6A34
0160:27248A   movsx eax,[ebp-0004] 0FBF45FC
0160:27248E   add  eax,0004 83C004
0160:272491   push eax 50
0160:272492   call 00281ED7 ($+fa40) E840FA0000
0160:272497   add  esp,0008 83C408
0160:27249A   xor  eax,eax 31C0
0160:27249C   mov  ax,[002B49A8] 66A1A8492B00
0160:2724A2   push eax 50
0160:2724A3   movsx eax,[ebp-0004] 0FBF45FC
0160:2724A7   add  eax,0005 83C005
0160:2724AA   push eax 50
0160:2724AB   call 00281ED7 ($+fa27) E827FA0000
0160:2724B0   add  esp,0008 83C408
0160:2724B3   push 0035 6A35
0160:2724B5   movsx eax,[ebp-0004] 0FBF45FC
0160:2724B9   add  eax,0004 83C004
0160:2724BC   push eax 50
0160:2724BD   call 00281ED7 ($+fa15) E815FA0000
0160:2724C2   add  esp,0008 83C408
0160:2724C5   xor  eax,eax 31C0
0160:2724C7   mov  ax,[002B49AA] 66A1AA492B00
0160:2724CD   push eax 50
0160:2724CE   movsx eax,[ebp-0004] 0FBF45FC
0160:2724D2   add  eax,0005 83C005
0160:2724D5   push eax 50
0160:2724D6   call 00281ED7 ($+f9fc) E8FCF90000
0160:2724DB   add  esp,0008 83C408
0160:2724DE   push 0044 6A44
0160:2724E0   movsx eax,[ebp-0004] 0FBF45FC
0160:2724E4   add  eax,0004 83C004
0160:2724E7   push eax 50
0160:2724E8   call 00281ED7 ($+f9ea) E8EAF90000
0160:2724ED   add  esp,0008 83C408
0160:2724F0   xor  eax,eax 31C0
0160:2724F2   mov  ax,[002B49B0] 66A1B0492B00
0160:2724F8   push eax 50
0160:2724F9   movsx eax,[ebp-0004] 0FBF45FC
0160:2724FD   add  eax,0005 83C005
0160:272500   push eax 50
0160:272501   call 00281ED7 ($+f9d1) E8D1F90000
0160:272506   add  esp,0008 83C408
0160:272509   push 0045 6A45
0160:27250B   movsx eax,[ebp-0004] 0FBF45FC
0160:27250F   add  eax,0004 83C004
0160:272512   push eax 50
0160:272513   call 00281ED7 ($+f9bf) E8BFF90000
0160:272518   add  esp,0008 83C408
0160:27251B   xor  eax,eax 31C0
0160:27251D   mov  ax,[002B49B2] 66A1B2492B00
0160:272523   push eax 50
0160:272524   movsx eax,[ebp-0004] 0FBF45FC
0160:272528   add  eax,0005 83C005
0160:27252B   push eax 50
0160:27252C   call 00281ED7 ($+f9a6) E8A6F90000
0160:272531   add  esp,0008 83C408
0160:272534   push 0046 6A46
0160:272536   movsx eax,[ebp-0004] 0FBF45FC
0160:27253A   add  eax,0004 83C004
0160:27253D   push eax 50
0160:27253E   call 00281ED7 ($+f994) E894F90000
0160:272543   add  esp,0008 83C408
0160:272546   xor  eax,eax 31C0
0160:272548   mov  ax,[002B49B4] 66A1B4492B00
0160:27254E   push eax 50
0160:27254F   movsx eax,[ebp-0004] 0FBF45FC
0160:272553   add  eax,0005 83C005
0160:272556   push eax 50
0160:272557   call 00281ED7 ($+f97b) E87BF90000
0160:27255C   add  esp,0008 83C408
0160:27255F   push 0047 6A47
0160:272561   movsx eax,[ebp-0004] 0FBF45FC
0160:272565   add  eax,0004 83C004
0160:272568   push eax 50
0160:272569   call 00281ED7 ($+f969) E869F90000
0160:27256E   add  esp,0008 83C408
0160:272571   xor  eax,eax 31C0
0160:272573   mov  ax,[002B49B6] 66A1B6492B00
0160:272579   push eax 50
0160:27257A   movsx eax,[ebp-0004] 0FBF45FC
0160:27257E   add  eax,0005 83C005
0160:272581   push eax 50
0160:272582   call 00281ED7 ($+f950) E850F90000
0160:272587   add  esp,0008 83C408
0160:27258A   mov  esp,ebp 89EC
0160:27258C   pop  ebp 5D
0160:27258D   pop  edi 5F
0160:27258E   pop  esi 5E
0160:27258F   pop  ebx 5B
0160:272590   ret C3
0160:272591   add  [eax],al 0000
0160:272593   add  [eax],al 0000
0160:272595   add  [eax],al 0000
0160:272597   add  [eax],al 0000
0160:272599   add  [eax],al 0000
0160:27259B   add  [eax],al 0000
0160:27259D   add  [eax],al 0000
0160:27259F   add  [ebx+0056],dl 005356
0160:2725A2   push edi 57
0160:2725A3   push ebp 55
0160:2725A4   mov  ebp,esp 89E5
0160:2725A6   sub  esp,00000000 81EC00000000
0160:2725AC   cmp  dword [002B49BC],0000 833DBC492B0000
0160:2725B3   jnz  00272657 ($+9e) 0F859E000000
0160:2725B9   mov  eax,002796A0 B8A0962700
0160:2725BE   push eax 50
0160:2725BF   mov  eax,002725A0 B8A0252700
0160:2725C4   push eax 50
0160:2725C5   call 0027E590 ($+bfc6) E8C6BF0000
0160:2725CA   add  esp,0008 83C408
0160:2725CD   push 0004 6A04
0160:2725CF   mov  eax,00352BF4 B8F42B3500
0160:2725D4   push eax 50
0160:2725D5   call 0027E710 ($+c136) E836C10000
0160:2725DA   add  esp,0008 83C408
0160:2725DD   push 0004 6A04
0160:2725DF   mov  eax,00352BF8 B8F82B3500
0160:2725E4   push eax 50
0160:2725E5   call 0027E710 ($+c126) E826C10000
0160:2725EA   add  esp,0008 83C408
0160:2725ED   push 0004 6A04
0160:2725EF   mov  eax,00352BF0 B8F02B3500
0160:2725F4   push eax 50
0160:2725F5   call 0027E710 ($+c116) E816C10000
0160:2725FA   add  esp,0008 83C408
0160:2725FD   push 0004 6A04
0160:2725FF   mov  eax,00352BFC B8FC2B3500
0160:272604   push eax 50
0160:272605   call 0027E710 ($+c106) E806C10000
0160:27260A   add  esp,0008 83C408
0160:27260D   push 0004 6A04
0160:27260F   mov  eax,00352C0C B80C2C3500
0160:272614   push eax 50
0160:272615   call 0027E710 ($+c0f6) E8F6C00000
0160:27261A   add  esp,0008 83C408
0160:27261D   push 0004 6A04
0160:27261F   mov  eax,00352C08 B8082C3500
0160:272624   push eax 50
0160:272625   call 0027E710 ($+c0e6) E8E6C00000
0160:27262A   add  esp,0008 83C408
0160:27262D   push 0004 6A04
0160:27262F   mov  eax,00352C10 B8102C3500
0160:272634   push eax 50
0160:272635   call 0027E710 ($+c0d6) E8D6C00000
0160:27263A   add  esp,0008 83C408
0160:27263D   push 0004 6A04
0160:27263F   mov  eax,00352C00 B8002C3500
0160:272644   push eax 50
0160:272645   call 0027E710 ($+c0c6) E8C6C00000
0160:27264A   add  esp,0008 83C408
0160:27264D   mov  dword [002B49BC],00000001 C705BC492B0001000000
0160:272657   pop  ebp 5D
0160:272658   pop  edi 5F
0160:272659   pop  esi 5E
0160:27265A   pop  ebx 5B
0160:27265B   ret C3
0160:27265C   lea  eax,[eax] 8D442000
0160:272660   push esi 56
0160:272661   push edi 57
0160:272662   push ebp 55
0160:272663   mov  ebp,esp 89E5
0160:272665   sub  esp,00000000 81EC00000000
0160:27266B   cmp  dword [00352BFC],0063 833DFC2B350063
0160:272672   jne  0027267D ($+9) 7509
0160:272674   cmp  dword [00352C0C],003B 833D0C2C35003B
0160:27267B   je   0027267F ($+2) 7402
0160:27267D   jmp  short 00272688 ($+9) EB09
0160:27267F   cmp  dword [00352C08],003B 833D082C35003B
0160:272686   je   0027268A ($+2) 7402
0160:272688   jmp  short 00272693 ($+9) EB09
0160:27268A   cmp  dword [00352C10],0063 833D102C350063
0160:272691   je   00272695 ($+2) 7402
0160:272693   jmp  short 00272697 ($+2) EB02
0160:272695   jmp  short 002726E8 ($+51) EB51
0160:272697   inc  dword [00352C10] FF05102C3500
0160:27269D   cmp  dword [00352C10],0064 833D102C350064
0160:2726A4   jne  002726E8 ($+42) 7542
0160:2726A6   mov  dword [00352C10],00000000 C705102C350000000000
0160:2726B0   inc  dword [00352C08] FF05082C3500
0160:2726B6   cmp  dword [00352C08],003C 833D082C35003C
0160:2726BD   jne  002726E8 ($+29) 7529
0160:2726BF   mov  dword [00352C08],00000000 C705082C350000000000
0160:2726C9   inc  dword [00352C0C] FF050C2C3500
0160:2726CF   cmp  dword [00352C0C],003C 833D0C2C35003C
0160:2726D6   jne  002726E8 ($+10) 7510
0160:2726D8   mov  dword [00352C0C],00000000 C7050C2C350000000000
0160:2726E2   inc  dword [00352BFC] FF05FC2B3500
0160:2726E8   pop  ebp 5D
0160:2726E9   pop  edi 5F
0160:2726EA   pop  esi 5E
0160:2726EB   ret C3
0160:2726EC   lea  eax,[eax] 8D442000
0160:2726F0   push ebx 53
0160:2726F1   push esi 56
0160:2726F2   push edi 57
0160:2726F3   push ebp 55
0160:2726F4   mov  ebp,esp 89E5
0160:2726F6   sub  esp,00000018 81EC18000000
0160:2726FC   call 00281EEC ($+f7eb) E8EBF70000
0160:272701   mov  eax,[00352BFC] A1FC2B3500
0160:272706   mov  [ebp-0004],eax 8945FC
0160:272709   mov  eax,[00352C0C] A10C2C3500
0160:27270E   mov  [ebp-0008],eax 8945F8
0160:272711   mov  eax,[00352C08] A1082C3500
0160:272716   mov  [ebp-000C],eax 8945F4
0160:272719   mov  eax,[00352C10] A1102C3500
0160:27271E   mov  [ebp-0010],eax 8945F0
0160:272721   call 00281EF9 ($+f7d3) E8D3F70000
0160:272726   cmp  dword [00352C04],0001 833D042C350001
0160:27272D   jne  00272755 ($+26) 7526
0160:27272F   mov  eax,[ebp-0010] 8B45F0
0160:272732   push eax 50
0160:272733   mov  eax,[ebp-000C] 8B45F4
0160:272736   push eax 50
0160:272737   mov  eax,[ebp-0008] 8B45F8
0160:27273A   push eax 50
0160:27273B   mov  eax,[ebp-0004] 8B45FC
0160:27273E   push eax 50
0160:27273F   mov  eax,002A3250 B850322A00
0160:272744   push eax 50
0160:272745   push dword [00352BF0] FF35F02B3500
0160:27274B   call 002828E3 ($+10193) E893010100
0160:272750   add  esp,0018 83C418
0160:272753   jmp  short 00272782 ($+2d) EB2D
0160:272755   mov  dword [ebp-0014],00000000 C745EC00000000
0160:27275C   cmp  dword [ebp-0014],000E 837DEC0E
0160:272760   jc   0027276C ($+a) 720A
0160:272762   jmp  short 00272782 ($+1e) EB1E
0160:272764   mov  eax,[ebp-0014] 8B45EC
0160:272767   inc  dword [ebp-0014] FF45EC
0160:27276A   jmp  short 0027275C ($-10) EBF0
0160:27276C   mov  eax,002A326C B86C322A00
0160:272771   push eax 50
0160:272772   push dword [00352BF0] FF35F02B3500
0160:272778   call 002828E3 ($+10166) E866010100
0160:27277D   add  esp,0008 83C408
0160:272780   jmp  short 00272764 ($-1e) EBE2
0160:272782   mov  dword [ebp-0014],00000001 C745EC01000000
0160:272789   mov  eax,[ebp-0014] 8B45EC
0160:27278C   cmp  eax,[00352C04] 3B05042C3500
0160:272792   jc   0027279E ($+a) 720A
0160:272794   jmp  short 002727B4 ($+1e) EB1E
0160:272796   mov  eax,[ebp-0014] 8B45EC
0160:272799   inc  dword [ebp-0014] FF45EC
0160:27279C   jmp  short 00272789 ($-15) EBEB
0160:27279E   mov  eax,002A3270 B870322A00
0160:2727A3   push eax 50
0160:2727A4   push dword [00352BF0] FF35F02B3500
0160:2727AA   call 002828E3 ($+10134) E834010100
0160:2727AF   add  esp,0008 83C408
0160:2727B2   jmp  short 00272796 ($-1e) EBE2
0160:2727B4   mov  dword [ebp-0018],00000001 C745E801000000
0160:2727BB   mov  eax,[ebp-0018] 8B45E8
0160:2727BE   mov  esp,ebp 89EC
0160:2727C0   pop  ebp 5D
0160:2727C1   pop  edi 5F
0160:2727C2   pop  esi 5E
0160:2727C3   pop  ebx 5B
0160:2727C4   ret C3
0160:2727C5   lea  eax,[eax+00000000] 8D8000000000
0160:2727CB   lea  edx,[edx] 8D5200
0160:2727CE   mov  ebx,ebx 8BDB
0160:2727D0   push esi 56
0160:2727D1   push edi 57
0160:2727D2   push ebp 55
0160:2727D3   mov  ebp,esp 89E5
0160:2727D5   sub  esp,0000000C 81EC0C000000
0160:2727DB   call 002725A0 ($-240) E8C0FDFFFF
0160:2727E0   mov  dword [00352BF4],00000000 C705F42B350000000000
0160:2727EA   mov  dword [00352BF8],00000000 C705F82B350000000000
0160:2727F4   mov  eax,002A3274 B874322A00
0160:2727F9   push eax 50
0160:2727FA   call 0027AE33 ($+8634) E834860000
0160:2727FF   add  esp,0004 83C404
0160:272802   mov  [ebp-0004],eax 8945FC
0160:272805   cmp  dword [ebp-0004],0000 837DFC00
0160:272809   jne  00272815 ($+a) 750A
0160:27280B   call 0027FC30 ($+d420) E820D40000
0160:272810   jmp  002729AD ($+198) E998010000
0160:272815   mov  eax,002A3280 B880322A00
0160:27281A   push eax 50
0160:27281B   call 0027AE33 ($+8613) E813860000
0160:272820   add  esp,0004 83C404
0160:272823   test eax,eax 85C0
0160:272825   je   00272831 ($+a) 740A
0160:272827   mov  dword [00352BF8],00000001 C705F82B350001000000
0160:272831   mov  eax,002A3290 B890322A00
0160:272836   push eax 50
0160:272837   mov  eax,[ebp-0004] 8B45FC
0160:27283A   push eax 50
0160:27283B   call 00282AF0 ($+102b0) E8B0020100
0160:272840   add  esp,0008 83C408
0160:272843   mov  [00352BF0],eax A3F02B3500
0160:272848   cmp  dword [00352BF0],0000 833DF02B350000
0160:27284F   jne  0027285B ($+a) 750A
0160:272851   call 0027FC30 ($+d3da) E8DAD30000
0160:272856   jmp  002729AD ($+152) E952010000
0160:27285B   mov  eax,[00352BF0] A1F02B3500
0160:272860   push dword [eax+0010] FF7010
0160:272863   call 00282B9F ($+10337) E837030100
0160:272868   add  esp,0004 83C404
0160:27286B   test eax,eax 85C0
0160:27286D   je   0027287F ($+10) 7410
0160:27286F   push 0000 6A00
0160:272871   push dword [00352BF0] FF35F02B3500
0160:272877   call 00282BBB ($+1033f) E83F030100
0160:27287C   add  esp,0008 83C408
0160:27287F   lea  eax,[ebp-0008] 8D45F8
0160:272882   push eax 50
0160:272883   call 00282BE8 ($+10360) E860030100
0160:272888   add  esp,0004 83C404
0160:27288B   lea  eax,[ebp-0008] 8D45F8
0160:27288E   push eax 50
0160:27288F   call 00282C75 ($+103e1) E8E1030100
0160:272894   add  esp,0004 83C404
0160:272897   mov  [ebp-000C],eax 8945F4
0160:27289A   mov  eax,[ebp-000C] 8B45F4
0160:27289D   push eax 50
0160:27289E   call 00282DB2 ($+1050f) E80F050100
0160:2728A3   add  esp,0004 83C404
0160:2728A6   push eax 50
0160:2728A7   mov  eax,00352C14 B8142C3500
0160:2728AC   push eax 50
0160:2728AD   call 0027AD46 ($+8494) E894840000
0160:2728B2   add  esp,0008 83C408
0160:2728B5   mov  byte [00352C2C],00 C6052C2C350000
0160:2728BC   mov  eax,002A3294 B894322A00
0160:2728C1   push eax 50
0160:2728C2   push dword [00352BF0] FF35F02B3500
0160:2728C8   call 002828E3 ($+10016) E816000100
0160:2728CD   add  esp,0008 83C408
0160:2728D0   mov  eax,002A32E8 B8E8322A00
0160:2728D5   push eax 50
0160:2728D6   mov  eax,002A32F0 B8F0322A00
0160:2728DB   push eax 50
0160:2728DC   push dword [00352BF0] FF35F02B3500
0160:2728E2   call 002828E3 ($+fffc) E8FCFF0000
0160:2728E7   add  esp,000C 83C40C
0160:2728EA   mov  eax,00352C14 B8142C3500
0160:2728EF   push eax 50
0160:2728F0   mov  eax,002A3338 B838332A00
0160:2728F5   push eax 50
0160:2728F6   push dword [00352BF0] FF35F02B3500
0160:2728FC   call 002828E3 ($+ffe2) E8E2FF0000
0160:272901   add  esp,000C 83C40C
0160:272904   mov  eax,002A3348 B848332A00
0160:272909   push eax 50
0160:27290A   push dword [00352BF0] FF35F02B3500
0160:272910   call 002828E3 ($+ffce) E8CEFF0000
0160:272915   add  esp,0008 83C408
0160:272918   call 0027FC30 ($+d313) E813D30000
0160:27291D   mov  dword [00352BFC],00000000 C705FC2B350000000000
0160:272927   mov  dword [00352C0C],00000000 C7050C2C350000000000
0160:272931   mov  dword [00352C08],00000000 C705082C350000000000
0160:27293B   mov  dword [00352C10],00000000 C705102C350000000000
0160:272945   mov  eax,00272660 B860262700
0160:27294A   push eax 50
0160:27294B   call 002826AE ($+fd5e) E85EFD0000
0160:272950   add  esp,0004 83C404
0160:272953   mov  [00352C00],eax A3002C3500
0160:272958   push 0064 6A64
0160:27295A   push dword [00352C00] FF35002C3500
0160:272960   call 00282840 ($+fedb) E8DBFE0000
0160:272965   add  esp,0008 83C408
0160:272968   push dword [00352C00] FF35002C3500
0160:27296E   call 00282768 ($+fdf5) E8F5FD0000
0160:272973   add  esp,0004 83C404
0160:272976   mov  dword [00352BF4],00000001 C705F42B350001000000
0160:272980   mov  dword [00352C04],00000001 C705042C350001000000
0160:27298A   call 002726F0 ($-29f) E861FDFFFF
0160:27298F   mov  dword [00352C04],00000000 C705042C350000000000
0160:272999   mov  eax,002A339C B89C332A00
0160:27299E   push eax 50
0160:27299F   push dword [00352BF0] FF35F02B3500
0160:2729A5   call 002828E3 ($+ff39) E839FF0000
0160:2729AA   add  esp,0008 83C408
0160:2729AD   mov  esp,ebp 89EC
0160:2729AF   pop  ebp 5D
0160:2729B0   pop  edi 5F
0160:2729B1   pop  esi 5E
0160:2729B2   ret C3
0160:2729B3   lea  eax,[eax+00000000] 8D8000000000
0160:2729B9   lea  edx,[edx+00000000] 8D9200000000
0160:2729BF   nop 90
0160:2729C0   push esi 56
0160:2729C1   push edi 57
0160:2729C2   push ebp 55
0160:2729C3   mov  ebp,esp 89E5
0160:2729C5   sub  esp,00000004 81EC04000000
0160:2729CB   inc  dword [00352C04] FF05042C3500
0160:2729D1   cmp  dword [00352BF4],0000 833DF42B350000
0160:2729D8   je   002729EE ($+14) 7414
0160:2729DA   cmp  dword [00352C04],0001 833D042C350001
0160:2729E1   je   002729EC ($+9) 7409
0160:2729E3   cmp  dword [00352BF8],0000 833DF82B350000
0160:2729EA   je   002729EE ($+2) 7402
0160:2729EC   jmp  short 002729F0 ($+2) EB02
0160:2729EE   jmp  short 00272A02 ($+12) EB12
0160:2729F0   call 002826A2 ($+fcad) E8ADFC0000
0160:2729F5   test eax,eax 85C0
0160:2729F7   jne  00272A02 ($+9) 7509
0160:2729F9   call 002726F0 ($-30e) E8F2FCFFFF
0160:2729FE   test eax,eax 85C0
0160:272A00   jne  00272A04 ($+2) 7502
0160:272A02   jmp  short 00272A0D ($+9) EB09
0160:272A04   mov  dword [ebp-0004],00000001 C745FC01000000
0160:272A0B   jmp  short 00272A14 ($+7) EB07
0160:272A0D   mov  dword [ebp-0004],00000000 C745FC00000000
0160:272A14   cmp  dword [ebp-0004],0000 837DFC00
0160:272A18   je   00272A2E ($+14) 7414
0160:272A1A   mov  eax,002A33AC B8AC332A00
0160:272A1F   push eax 50
0160:272A20   push dword [00352BF0] FF35F02B3500
0160:272A26   call 002828E3 ($+feb8) E8B8FE0000
0160:272A2B   add  esp,0008 83C408
0160:272A2E   call 0027FD70 ($+d33d) E83DD30000
0160:272A33   cmp  dword [00352BF4],0000 833DF42B350000
0160:272A3A   je   00272A50 ($+14) 7414
0160:272A3C   cmp  dword [00352C04],0001 833D042C350001
0160:272A43   je   00272A4E ($+9) 7409
0160:272A45   cmp  dword [00352BF8],0000 833DF82B350000
0160:272A4C   je   00272A50 ($+2) 7402
0160:272A4E   jmp  short 00272A52 ($+2) EB02
0160:272A50   jmp  short 00272A5B ($+9) EB09
0160:272A52   call 002826A2 ($+fc4b) E84BFC0000
0160:272A57   test eax,eax 85C0
0160:272A59   je   00272A5D ($+2) 7402
0160:272A5B   jmp  short 00272A6B ($+e) EB0E
0160:272A5D   push dword [00352BF0] FF35F02B3500
0160:272A63   call 00282E05 ($+1039d) E89D030100
0160:272A68   add  esp,0004 83C404
0160:272A6B   dec  dword [00352C04] FF0D042C3500
0160:272A71   mov  esp,ebp 89EC
0160:272A73   pop  ebp 5D
0160:272A74   pop  edi 5F
0160:272A75   pop  esi 5E
0160:272A76   ret C3
0160:272A77   lea  eax,[eax+00000000] 8D8000000000
0160:272A7D   lea  edx,[edx] 8D5200
0160:272A80   push esi 56
0160:272A81   push edi 57
0160:272A82   push ebp 55
0160:272A83   mov  ebp,esp 89E5
0160:272A85   sub  esp,00000010 81EC10000000
0160:272A8B   inc  dword [00352C04] FF05042C3500
0160:272A91   cmp  dword [00352BF4],0000 833DF42B350000
0160:272A98   je   00272AAE ($+14) 7414
0160:272A9A   cmp  dword [00352C04],0001 833D042C350001
0160:272AA1   je   00272AAC ($+9) 7409
0160:272AA3   cmp  dword [00352BF8],0000 833DF82B350000
0160:272AAA   je   00272AAE ($+2) 7402
0160:272AAC   jmp  short 00272AB0 ($+2) EB02
0160:272AAE   jmp  short 00272AC2 ($+12) EB12
0160:272AB0   call 002826A2 ($+fbed) E8EDFB0000
0160:272AB5   test eax,eax 85C0
0160:272AB7   jne  00272AC2 ($+9) 7509
0160:272AB9   call 002726F0 ($-3ce) E832FCFFFF
0160:272ABE   test eax,eax 85C0
0160:272AC0   jne  00272AC4 ($+2) 7502
0160:272AC2   jmp  short 00272ACD ($+9) EB09
0160:272AC4   mov  dword [ebp-000C],00000001 C745F401000000
0160:272ACB   jmp  short 00272AD4 ($+7) EB07
0160:272ACD   mov  dword [ebp-000C],00000000 C745F400000000
0160:272AD4   cmp  dword [ebp-000C],0000 837DF400
0160:272AD8   je   00272AF6 ($+1c) 741C
0160:272ADA   mov  eax,[ebp+0014] 8B4514
0160:272ADD   push eax 50
0160:272ADE   mov  eax,[ebp+0010] 8B4510
0160:272AE1   push eax 50
0160:272AE2   mov  eax,002A33BC B8BC332A00
0160:272AE7   push eax 50
0160:272AE8   push dword [00352BF0] FF35F02B3500
0160:272AEE   call 002828E3 ($+fdf0) E8F0FD0000
0160:272AF3   add  esp,0010 83C410
0160:272AF6   mov  eax,[ebp+0014] 8B4514
0160:272AF9   push eax 50
0160:272AFA   mov  eax,[ebp+0010] 8B4510
0160:272AFD   push eax 50
0160:272AFE   call 0027F6E0 ($+cbdd) E8DDCB0000
0160:272B03   add  esp,0008 83C408
0160:272B06   mov  [ebp-0004],eax 8945FC
0160:272B09   cmp  dword [00352BF4],0000 833DF42B350000
0160:272B10   je   00272B26 ($+14) 7414
0160:272B12   cmp  dword [00352C04],0001 833D042C350001
0160:272B19   je   00272B24 ($+9) 7409
0160:272B1B   cmp  dword [00352BF8],0000 833DF82B350000
0160:272B22   je   00272B26 ($+2) 7402
0160:272B24   jmp  short 00272B28 ($+2) EB02
0160:272B26   jmp  short 00272B31 ($+9) EB09
0160:272B28   call 002826A2 ($+fb75) E875FB0000
0160:272B2D   test eax,eax 85C0
0160:272B2F   je   00272B36 ($+5) 7405
0160:272B31   jmp  00272BAD ($+77) E977000000
0160:272B36   mov  dword [ebp-0010],00000000 C745F000000000
0160:272B3D   cmp  dword [ebp-0010],000E 837DF00E
0160:272B41   jc   00272B4D ($+a) 720A
0160:272B43   jmp  short 00272B63 ($+1e) EB1E
0160:272B45   mov  eax,[ebp-0010] 8B45F0
0160:272B48   inc  dword [ebp-0010] FF45F0
0160:272B4B   jmp  short 00272B3D ($-10) EBF0
0160:272B4D   mov  eax,002A326C B86C322A00
0160:272B52   push eax 50
0160:272B53   push dword [00352BF0] FF35F02B3500
0160:272B59   call 002828E3 ($+fd85) E885FD0000
0160:272B5E   add  esp,0008 83C408
0160:272B61   jmp  short 00272B45 ($-1e) EBE2
0160:272B63   mov  dword [ebp-0010],00000001 C745F001000000
0160:272B6A   mov  eax,[ebp-0010] 8B45F0
0160:272B6D   cmp  eax,[00352C04] 3B05042C3500
0160:272B73   jc   00272B7F ($+a) 720A
0160:272B75   jmp  short 00272B95 ($+1e) EB1E
0160:272B77   mov  eax,[ebp-0010] 8B45F0
0160:272B7A   inc  dword [ebp-0010] FF45F0
0160:272B7D   jmp  short 00272B6A ($-15) EBEB
0160:272B7F   mov  eax,002A3270 B870322A00
0160:272B84   push eax 50
0160:272B85   push dword [00352BF0] FF35F02B3500
0160:272B8B   call 002828E3 ($+fd53) E853FD0000
0160:272B90   add  esp,0008 83C408
0160:272B93   jmp  short 00272B77 ($-1e) EBE2
0160:272B95   mov  eax,[ebp-0004] 8B45FC
0160:272B98   push eax 50
0160:272B99   mov  eax,002A33D8 B8D8332A00
0160:272B9E   push eax 50
0160:272B9F   push dword [00352BF0] FF35F02B3500
0160:272BA5   call 002828E3 ($+fd39) E839FD0000
0160:272BAA   add  esp,000C 83C40C
0160:272BAD   dec  dword [00352C04] FF0D042C3500
0160:272BB3   mov  eax,[ebp-0004] 8B45FC
0160:272BB6   mov  [ebp-0008],eax 8945F8
0160:272BB9   mov  eax,[ebp-0008] 8B45F8
0160:272BBC   mov  esp,ebp 89EC
0160:272BBE   pop  ebp 5D
0160:272BBF   pop  edi 5F
0160:272BC0   pop  esi 5E
0160:272BC1   ret C3
0160:272BC2   lea  eax,[eax+00000000] 8D8000000000
0160:272BC8   lea  edx,[edx+00000000] 8D9200000000
0160:272BCE   mov  eax,eax 8BC0
0160:272BD0   push esi 56
0160:272BD1   push edi 57
0160:272BD2   push ebp 55
0160:272BD3   mov  ebp,esp 89E5
0160:272BD5   sub  esp,00000000 81EC00000000
0160:272BDB   call 00281EEC ($+f30c) E80CF30000
0160:272BE0   pop  ebp 5D
0160:272BE1   pop  edi 5F
0160:272BE2   pop  esi 5E
0160:272BE3   ret C3
0160:272BE4   lea  eax,[eax+00000000] 8D8000000000
0160:272BEA   lea  edx,[edx+00000000] 8D9200000000
0160:272BF0   push esi 56
0160:272BF1   push edi 57
0160:272BF2   push ebp 55
0160:272BF3   mov  ebp,esp 89E5
0160:272BF5   sub  esp,00000000 81EC00000000
0160:272BFB   call 00281EF9 ($+f2f9) E8F9F20000
0160:272C00   pop  ebp 5D
0160:272C01   pop  edi 5F
0160:272C02   pop  esi 5E
0160:272C03   ret C3
0160:272C04   lea  eax,[eax+00000000] 8D8000000000
0160:272C0A   lea  edx,[edx+00000000] 8D9200000000
0160:272C10   push esi 56
0160:272C11   push edi 57
0160:272C12   push ebp 55
0160:272C13   mov  ebp,esp 89E5
0160:272C15   sub  esp,00000010 81EC10000000
0160:272C1B   inc  dword [00352C04] FF05042C3500
0160:272C21   cmp  dword [00352BF4],0000 833DF42B350000
0160:272C28   je   00272C3E ($+14) 7414
0160:272C2A   cmp  dword [00352C04],0001 833D042C350001
0160:272C31   je   00272C3C ($+9) 7409
0160:272C33   cmp  dword [00352BF8],0000 833DF82B350000
0160:272C3A   je   00272C3E ($+2) 7402
0160:272C3C   jmp  short 00272C40 ($+2) EB02
0160:272C3E   jmp  short 00272C52 ($+12) EB12
0160:272C40   call 002826A2 ($+fa5d) E85DFA0000
0160:272C45   test eax,eax 85C0
0160:272C47   jne  00272C52 ($+9) 7509
0160:272C49   call 002726F0 ($-55e) E8A2FAFFFF
0160:272C4E   test eax,eax 85C0
0160:272C50   jne  00272C54 ($+2) 7502
0160:272C52   jmp  short 00272C5D ($+9) EB09
0160:272C54   mov  dword [ebp-000C],00000001 C745F401000000
0160:272C5B   jmp  short 00272C64 ($+7) EB07
0160:272C5D   mov  dword [ebp-000C],00000000 C745F400000000
0160:272C64   cmp  dword [ebp-000C],0000 837DF400
0160:272C68   je   00272C82 ($+18) 7418
0160:272C6A   mov  eax,[ebp+0010] 8B4510
0160:272C6D   push eax 50
0160:272C6E   mov  eax,002A33E8 B8E8332A00
0160:272C73   push eax 50
0160:272C74   push dword [00352BF0] FF35F02B3500
0160:272C7A   call 002828E3 ($+fc64) E864FC0000
0160:272C7F   add  esp,000C 83C40C
0160:272C82   mov  eax,[ebp+0010] 8B4510
0160:272C85   push eax 50
0160:272C86   call 0028221D ($+f592) E892F50000
0160:272C8B   add  esp,0004 83C404
0160:272C8E   mov  [ebp-0004],eax 8945FC
0160:272C91   cmp  dword [00352BF4],0000 833DF42B350000
0160:272C98   je   00272CAE ($+14) 7414
0160:272C9A   cmp  dword [00352C04],0001 833D042C350001
0160:272CA1   je   00272CAC ($+9) 7409
0160:272CA3   cmp  dword [00352BF8],0000 833DF82B350000
0160:272CAA   je   00272CAE ($+2) 7402
0160:272CAC   jmp  short 00272CB0 ($+2) EB02
0160:272CAE   jmp  short 00272CB9 ($+9) EB09
0160:272CB0   call 002826A2 ($+f9ed) E8EDF90000
0160:272CB5   test eax,eax 85C0
0160:272CB7   je   00272CBE ($+5) 7405
0160:272CB9   jmp  00272D35 ($+77) E977000000
0160:272CBE   mov  dword [ebp-0010],00000000 C745F000000000
0160:272CC5   cmp  dword [ebp-0010],000E 837DF00E
0160:272CC9   jc   00272CD5 ($+a) 720A
0160:272CCB   jmp  short 00272CEB ($+1e) EB1E
0160:272CCD   mov  eax,[ebp-0010] 8B45F0
0160:272CD0   inc  dword [ebp-0010] FF45F0
0160:272CD3   jmp  short 00272CC5 ($-10) EBF0
0160:272CD5   mov  eax,002A326C B86C322A00
0160:272CDA   push eax 50
0160:272CDB   push dword [00352BF0] FF35F02B3500
0160:272CE1   call 002828E3 ($+fbfd) E8FDFB0000
0160:272CE6   add  esp,0008 83C408
0160:272CE9   jmp  short 00272CCD ($-1e) EBE2
0160:272CEB   mov  dword [ebp-0010],00000001 C745F001000000
0160:272CF2   mov  eax,[ebp-0010] 8B45F0
0160:272CF5   cmp  eax,[00352C04] 3B05042C3500
0160:272CFB   jc   00272D07 ($+a) 720A
0160:272CFD   jmp  short 00272D1D ($+1e) EB1E
0160:272CFF   mov  eax,[ebp-0010] 8B45F0
0160:272D02   inc  dword [ebp-0010] FF45F0
0160:272D05   jmp  short 00272CF2 ($-15) EBEB
0160:272D07   mov  eax,002A3270 B870322A00
0160:272D0C   push eax 50
0160:272D0D   push dword [00352BF0] FF35F02B3500
0160:272D13   call 002828E3 ($+fbcb) E8CBFB0000
0160:272D18   add  esp,0008 83C408
0160:272D1B   jmp  short 00272CFF ($-1e) EBE2
0160:272D1D   mov  eax,[ebp-0004] 8B45FC
0160:272D20   push eax 50
0160:272D21   mov  eax,002A3404 B804342A00
0160:272D26   push eax 50
0160:272D27   push dword [00352BF0] FF35F02B3500
0160:272D2D   call 002828E3 ($+fbb1) E8B1FB0000
0160:272D32   add  esp,000C 83C40C
0160:272D35   dec  dword [00352C04] FF0D042C3500
0160:272D3B   mov  eax,[ebp-0004] 8B45FC
0160:272D3E   mov  [ebp-0008],eax 8945F8
0160:272D41   mov  eax,[ebp-0008] 8B45F8
0160:272D44   mov  esp,ebp 89EC
0160:272D46   pop  ebp 5D
0160:272D47   pop  edi 5F
0160:272D48   pop  esi 5E
0160:272D49   ret C3
0160:272D4A   lea  eax,[eax+00000000] 8D8000000000
0160:272D50   push esi 56
0160:272D51   push edi 57
0160:272D52   push ebp 55
0160:272D53   mov  ebp,esp 89E5
0160:272D55   sub  esp,00000004 81EC04000000
0160:272D5B   inc  dword [00352C04] FF05042C3500
0160:272D61   cmp  dword [00352BF4],0000 833DF42B350000
0160:272D68   je   00272D7E ($+14) 7414
0160:272D6A   cmp  dword [00352C04],0001 833D042C350001
0160:272D71   je   00272D7C ($+9) 7409
0160:272D73   cmp  dword [00352BF8],0000 833DF82B350000
0160:272D7A   je   00272D7E ($+2) 7402
0160:272D7C   jmp  short 00272D80 ($+2) EB02
0160:272D7E   jmp  short 00272D92 ($+12) EB12
0160:272D80   call 002826A2 ($+f91d) E81DF90000
0160:272D85   test eax,eax 85C0
0160:272D87   jne  00272D92 ($+9) 7509
0160:272D89   call 002726F0 ($-69e) E862F9FFFF
0160:272D8E   test eax,eax 85C0
0160:272D90   jne  00272D94 ($+2) 7502
0160:272D92   jmp  short 00272D9D ($+9) EB09
0160:272D94   mov  dword [ebp-0004],00000001 C745FC01000000
0160:272D9B   jmp  short 00272DA4 ($+7) EB07
0160:272D9D   mov  dword [ebp-0004],00000000 C745FC00000000
0160:272DA4   cmp  dword [ebp-0004],0000 837DFC00
0160:272DA8   je   00272DC6 ($+1c) 741C
0160:272DAA   mov  eax,[ebp+0014] 8B4514
0160:272DAD   push eax 50
0160:272DAE   mov  eax,[ebp+0010] 8B4510
0160:272DB1   push eax 50
0160:272DB2   mov  eax,002A3414 B814342A00
0160:272DB7   push eax 50
0160:272DB8   push dword [00352BF0] FF35F02B3500
0160:272DBE   call 002828E3 ($+fb20) E820FB0000
0160:272DC3   add  esp,0010 83C410
0160:272DC6   mov  eax,[ebp+0014] 8B4514
0160:272DC9   push eax 50
0160:272DCA   mov  eax,[ebp+0010] 8B4510
0160:272DCD   push eax 50
0160:272DCE   call 00282249 ($+f476) E876F40000
0160:272DD3   add  esp,0008 83C408
0160:272DD6   dec  dword [00352C04] FF0D042C3500
0160:272DDC   mov  esp,ebp 89EC
0160:272DDE   pop  ebp 5D
0160:272DDF   pop  edi 5F
0160:272DE0   pop  esi 5E
0160:272DE1   ret C3
0160:272DE2   lea  eax,[eax+00000000] 8D8000000000
0160:272DE8   lea  edx,[edx+00000000] 8D9200000000
0160:272DEE   mov  eax,eax 8BC0
0160:272DF0   push esi 56
0160:272DF1   push edi 57
0160:272DF2   push ebp 55
0160:272DF3   mov  ebp,esp 89E5
0160:272DF5   sub  esp,00000004 81EC04000000
0160:272DFB   inc  dword [00352C04] FF05042C3500
0160:272E01   cmp  dword [00352BF4],0000 833DF42B350000
0160:272E08   je   00272E1E ($+14) 7414
0160:272E0A   cmp  dword [00352C04],0001 833D042C350001
0160:272E11   je   00272E1C ($+9) 7409
0160:272E13   cmp  dword [00352BF8],0000 833DF82B350000
0160:272E1A   je   00272E1E ($+2) 7402
0160:272E1C   jmp  short 00272E20 ($+2) EB02
0160:272E1E   jmp  short 00272E32 ($+12) EB12
0160:272E20   call 002826A2 ($+f87d) E87DF80000
0160:272E25   test eax,eax 85C0
0160:272E27   jne  00272E32 ($+9) 7509
0160:272E29   call 002726F0 ($-73e) E8C2F8FFFF
0160:272E2E   test eax,eax 85C0
0160:272E30   jne  00272E34 ($+2) 7502
0160:272E32   jmp  short 00272E3D ($+9) EB09
0160:272E34   mov  dword [ebp-0004],00000001 C745FC01000000
0160:272E3B   jmp  short 00272E44 ($+7) EB07
0160:272E3D   mov  dword [ebp-0004],00000000 C745FC00000000
0160:272E44   cmp  dword [ebp-0004],0000 837DFC00
0160:272E48   je   00272E6A ($+20) 7420
0160:272E4A   mov  eax,[ebp+0018] 8B4518
0160:272E4D   push eax 50
0160:272E4E   mov  eax,[ebp+0014] 8B4514
0160:272E51   push eax 50
0160:272E52   mov  eax,[ebp+0010] 8B4510
0160:272E55   push eax 50
0160:272E56   mov  eax,002A3434 B834342A00
0160:272E5B   push eax 50
0160:272E5C   push dword [00352BF0] FF35F02B3500
0160:272E62   call 002828E3 ($+fa7c) E87CFA0000
0160:272E67   add  esp,0014 83C414
0160:272E6A   mov  eax,[ebp+0018] 8B4518
0160:272E6D   push eax 50
0160:272E6E   mov  eax,[ebp+0014] 8B4514
0160:272E71   push eax 50
0160:272E72   mov  eax,[ebp+0010] 8B4510
0160:272E75   push eax 50
0160:272E76   call 002822C5 ($+f44a) E84AF40000
0160:272E7B   add  esp,000C 83C40C
0160:272E7E   dec  dword [00352C04] FF0D042C3500
0160:272E84   mov  esp,ebp 89EC
0160:272E86   pop  ebp 5D
0160:272E87   pop  edi 5F
0160:272E88   pop  esi 5E
0160:272E89   ret C3
0160:272E8A   lea  eax,[eax+00000000] 8D8000000000
0160:272E90   push esi 56
0160:272E91   push edi 57
0160:272E92   push ebp 55
0160:272E93   mov  ebp,esp 89E5
0160:272E95   sub  esp,00000004 81EC04000000
0160:272E9B   inc  dword [00352C04] FF05042C3500
0160:272EA1   cmp  dword [00352BF4],0000 833DF42B350000
0160:272EA8   je   00272EBE ($+14) 7414
0160:272EAA   cmp  dword [00352C04],0001 833D042C350001
0160:272EB1   je   00272EBC ($+9) 7409
0160:272EB3   cmp  dword [00352BF8],0000 833DF82B350000
0160:272EBA   je   00272EBE ($+2) 7402
0160:272EBC   jmp  short 00272EC0 ($+2) EB02
0160:272EBE   jmp  short 00272ED2 ($+12) EB12
0160:272EC0   call 002826A2 ($+f7dd) E8DDF70000
0160:272EC5   test eax,eax 85C0
0160:272EC7   jne  00272ED2 ($+9) 7509
0160:272EC9   call 002726F0 ($-7de) E822F8FFFF
0160:272ECE   test eax,eax 85C0
0160:272ED0   jne  00272ED4 ($+2) 7502
0160:272ED2   jmp  short 00272EDD ($+9) EB09
0160:272ED4   mov  dword [ebp-0004],00000001 C745FC01000000
0160:272EDB   jmp  short 00272EE4 ($+7) EB07
0160:272EDD   mov  dword [ebp-0004],00000000 C745FC00000000
0160:272EE4   cmp  dword [ebp-0004],0000 837DFC00
0160:272EE8   je   00272F02 ($+18) 7418
0160:272EEA   mov  eax,[ebp+0010] 8B4510
0160:272EED   push eax 50
0160:272EEE   mov  eax,002A3454 B854342A00
0160:272EF3   push eax 50
0160:272EF4   push dword [00352BF0] FF35F02B3500
0160:272EFA   call 002828E3 ($+f9e4) E8E4F90000
0160:272EFF   add  esp,000C 83C40C
0160:272F02   mov  eax,[ebp+0010] 8B4510
0160:272F05   push eax 50
0160:272F06   call 002824DB ($+f5d0) E8D0F50000
0160:272F0B   add  esp,0004 83C404
0160:272F0E   dec  dword [00352C04] FF0D042C3500
0160:272F14   mov  esp,ebp 89EC
0160:272F16   pop  ebp 5D
0160:272F17   pop  edi 5F
0160:272F18   pop  esi 5E
0160:272F19   ret C3
0160:272F1A   lea  eax,[eax+00000000] 8D8000000000
0160:272F20   push esi 56
0160:272F21   push edi 57
0160:272F22   push ebp 55
0160:272F23   mov  ebp,esp 89E5
0160:272F25   sub  esp,00000008 81EC08000000
0160:272F2B   call 00282520 ($+f5f0) E8F0F50000
0160:272F30   mov  [ebp-0004],eax 8945FC
0160:272F33   mov  eax,[ebp-0004] 8B45FC
0160:272F36   mov  [ebp-0008],eax 8945F8
0160:272F39   mov  eax,[ebp-0008] 8B45F8
0160:272F3C   mov  esp,ebp 89EC
0160:272F3E   pop  ebp 5D
0160:272F3F   pop  edi 5F
0160:272F40   pop  esi 5E
0160:272F41   ret C3
0160:272F42   lea  eax,[eax+00000000] 8D8000000000
0160:272F48   lea  edx,[edx+00000000] 8D9200000000
0160:272F4E   mov  eax,eax 8BC0
0160:272F50   push esi 56
0160:272F51   push edi 57
0160:272F52   push ebp 55
0160:272F53   mov  ebp,esp 89E5
0160:272F55   sub  esp,00000000 81EC00000000
0160:272F5B   mov  eax,[ebp+0010] 8B4510
0160:272F5E   push eax 50
0160:272F5F   call 00282524 ($+f5c0) E8C0F50000
0160:272F64   add  esp,0004 83C404
0160:272F67   pop  ebp 5D
0160:272F68   pop  edi 5F
0160:272F69   pop  esi 5E
0160:272F6A   ret C3
0160:272F6B   lea  eax,[eax] 8D4000
0160:272F6E   mov  ecx,ecx 8BC9
0160:272F70   push esi 56
0160:272F71   push edi 57
0160:272F72   push ebp 55
0160:272F73   mov  ebp,esp 89E5
0160:272F75   sub  esp,00000010 81EC10000000
0160:272F7B   inc  dword [00352C04] FF05042C3500
0160:272F81   cmp  dword [00352BF4],0000 833DF42B350000
0160:272F88   je   00272F9E ($+14) 7414
0160:272F8A   cmp  dword [00352C04],0001 833D042C350001
0160:272F91   je   00272F9C ($+9) 7409
0160:272F93   cmp  dword [00352BF8],0000 833DF82B350000
0160:272F9A   je   00272F9E ($+2) 7402
0160:272F9C   jmp  short 00272FA0 ($+2) EB02
0160:272F9E   jmp  short 00272FB2 ($+12) EB12
0160:272FA0   call 002826A2 ($+f6fd) E8FDF60000
0160:272FA5   test eax,eax 85C0
0160:272FA7   jne  00272FB2 ($+9) 7509
0160:272FA9   call 002726F0 ($-8be) E842F7FFFF
0160:272FAE   test eax,eax 85C0
0160:272FB0   jne  00272FB4 ($+2) 7502
0160:272FB2   jmp  short 00272FBD ($+9) EB09
0160:272FB4   mov  dword [ebp-000C],00000001 C745F401000000
0160:272FBB   jmp  short 00272FC4 ($+7) EB07
0160:272FBD   mov  dword [ebp-000C],00000000 C745F400000000
0160:272FC4   cmp  dword [ebp-000C],0000 837DF400
0160:272FC8   je   00272FEE ($+24) 7424
0160:272FCA   mov  eax,[ebp+001C] 8B451C
0160:272FCD   push eax 50
0160:272FCE   mov  eax,[ebp+0018] 8B4518
0160:272FD1   push eax 50
0160:272FD2   mov  eax,[ebp+0014] 8B4514
0160:272FD5   push eax 50
0160:272FD6   mov  eax,[ebp+0010] 8B4510
0160:272FD9   push eax 50
0160:272FDA   mov  eax,002A3470 B870342A00
0160:272FDF   push eax 50
0160:272FE0   push dword [00352BF0] FF35F02B3500
0160:272FE6   call 002828E3 ($+f8f8) E8F8F80000
0160:272FEB   add  esp,0018 83C418
0160:272FEE   mov  eax,[ebp+001C] 8B451C
0160:272FF1   push eax 50
0160:272FF2   mov  eax,[ebp+0018] 8B4518
0160:272FF5   push eax 50
0160:272FF6   mov  eax,[ebp+0014] 8B4514
0160:272FF9   push eax 50
0160:272FFA   mov  eax,[ebp+0010] 8B4510
0160:272FFD   push eax 50
0160:272FFE   call 0028258B ($+f588) E888F50000
0160:273003   add  esp,0010 83C410
0160:273006   mov  [ebp-0004],eax 8945FC
0160:273009   cmp  dword [00352BF4],0000 833DF42B350000
0160:273010   je   00273026 ($+14) 7414
0160:273012   cmp  dword [00352C04],0001 833D042C350001
0160:273019   je   00273024 ($+9) 7409
0160:27301B   cmp  dword [00352BF8],0000 833DF82B350000
0160:273022   je   00273026 ($+2) 7402
0160:273024   jmp  short 00273028 ($+2) EB02
0160:273026   jmp  short 00273031 ($+9) EB09
0160:273028   call 002826A2 ($+f675) E875F60000
0160:27302D   test eax,eax 85C0
0160:27302F   je   00273036 ($+5) 7405
0160:273031   jmp  002730AD ($+77) E977000000
0160:273036   mov  dword [ebp-0010],00000000 C745F000000000
0160:27303D   cmp  dword [ebp-0010],000E 837DF00E
0160:273041   jc   0027304D ($+a) 720A
0160:273043   jmp  short 00273063 ($+1e) EB1E
0160:273045   mov  eax,[ebp-0010] 8B45F0
0160:273048   inc  dword [ebp-0010] FF45F0
0160:27304B   jmp  short 0027303D ($-10) EBF0
0160:27304D   mov  eax,002A326C B86C322A00
0160:273052   push eax 50
0160:273053   push dword [00352BF0] FF35F02B3500
0160:273059   call 002828E3 ($+f885) E885F80000
0160:27305E   add  esp,0008 83C408
0160:273061   jmp  short 00273045 ($-1e) EBE2
0160:273063   mov  dword [ebp-0010],00000001 C745F001000000
0160:27306A   mov  eax,[ebp-0010] 8B45F0
0160:27306D   cmp  eax,[00352C04] 3B05042C3500
0160:273073   jc   0027307F ($+a) 720A
0160:273075   jmp  short 00273095 ($+1e) EB1E
0160:273077   mov  eax,[ebp-0010] 8B45F0
0160:27307A   inc  dword [ebp-0010] FF45F0
0160:27307D   jmp  short 0027306A ($-15) EBEB
0160:27307F   mov  eax,002A3270 B870322A00
0160:273084   push eax 50
0160:273085   push dword [00352BF0] FF35F02B3500
0160:27308B   call 002828E3 ($+f853) E853F80000
0160:273090   add  esp,0008 83C408
0160:273093   jmp  short 00273077 ($-1e) EBE2
0160:273095   mov  eax,[ebp-0004] 8B45FC
0160:273098   push eax 50
0160:273099   mov  eax,002A33D8 B8D8332A00
0160:27309E   push eax 50
0160:27309F   push dword [00352BF0] FF35F02B3500
0160:2730A5   call 002828E3 ($+f839) E839F80000
0160:2730AA   add  esp,000C 83C40C
0160:2730AD   dec  dword [00352C04] FF0D042C3500
0160:2730B3   mov  eax,[ebp-0004] 8B45FC
0160:2730B6   mov  [ebp-0008],eax 8945F8
0160:2730B9   mov  eax,[ebp-0008] 8B45F8
0160:2730BC   mov  esp,ebp 89EC
0160:2730BE   pop  ebp 5D
0160:2730BF   pop  edi 5F
0160:2730C0   pop  esi 5E
0160:2730C1   ret C3
0160:2730C2   lea  eax,[eax+00000000] 8D8000000000
0160:2730C8   lea  edx,[edx+00000000] 8D9200000000
0160:2730CE   mov  eax,eax 8BC0
0160:2730D0   push esi 56
0160:2730D1   push edi 57
0160:2730D2   push ebp 55
0160:2730D3   mov  ebp,esp 89E5
0160:2730D5   sub  esp,00000004 81EC04000000
0160:2730DB   inc  dword [00352C04] FF05042C3500
0160:2730E1   cmp  dword [00352BF4],0000 833DF42B350000
0160:2730E8   je   002730FE ($+14) 7414
0160:2730EA   cmp  dword [00352C04],0001 833D042C350001
0160:2730F1   je   002730FC ($+9) 7409
0160:2730F3   cmp  dword [00352BF8],0000 833DF82B350000
0160:2730FA   je   002730FE ($+2) 7402
0160:2730FC   jmp  short 00273100 ($+2) EB02
0160:2730FE   jmp  short 00273112 ($+12) EB12
0160:273100   call 002826A2 ($+f59d) E89DF50000
0160:273105   test eax,eax 85C0
0160:273107   jne  00273112 ($+9) 7509
0160:273109   call 002726F0 ($-a1e) E8E2F5FFFF
0160:27310E   test eax,eax 85C0
0160:273110   jne  00273114 ($+2) 7502
0160:273112   jmp  short 0027311D ($+9) EB09
0160:273114   mov  dword [ebp-0004],00000001 C745FC01000000
0160:27311B   jmp  short 00273124 ($+7) EB07
0160:27311D   mov  dword [ebp-0004],00000000 C745FC00000000
0160:273124   cmp  dword [ebp-0004],0000 837DFC00
0160:273128   je   00273142 ($+18) 7418
0160:27312A   mov  eax,[ebp+0010] 8B4510
0160:27312D   push eax 50
0160:27312E   mov  eax,002A3498 B898342A00
0160:273133   push eax 50
0160:273134   push dword [00352BF0] FF35F02B3500
0160:27313A   call 002828E3 ($+f7a4) E8A4F70000
0160:27313F   add  esp,000C 83C40C
0160:273142   mov  eax,[ebp+0010] 8B4510
0160:273145   push eax 50
0160:273146   call 00282665 ($+f51a) E81AF50000
0160:27314B   add  esp,0004 83C404
0160:27314E   dec  dword [00352C04] FF0D042C3500
0160:273154   mov  esp,ebp 89EC
0160:273156   pop  ebp 5D
0160:273157   pop  edi 5F
0160:273158   pop  esi 5E
0160:273159   ret C3
0160:27315A   lea  eax,[eax+00000000] 8D8000000000
0160:273160   push esi 56
0160:273161   push edi 57
0160:273162   push ebp 55
0160:273163   mov  ebp,esp 89E5
0160:273165   sub  esp,00000008 81EC08000000
0160:27316B   call 002826A2 ($+f532) E832F50000
0160:273170   mov  [ebp-0004],eax 8945FC
0160:273173   mov  eax,[ebp-0004] 8B45FC
0160:273176   mov  [ebp-0008],eax 8945F8
0160:273179   mov  eax,[ebp-0008] 8B45F8
0160:27317C   mov  esp,ebp 89EC
0160:27317E   pop  ebp 5D
0160:27317F   pop  edi 5F
0160:273180   pop  esi 5E
0160:273181   ret C3
0160:273182   lea  eax,[eax+00000000] 8D8000000000
0160:273188   lea  edx,[edx+00000000] 8D9200000000
0160:27318E   mov  eax,eax 8BC0
0160:273190   push esi 56
0160:273191   push edi 57
0160:273192   push ebp 55
0160:273193   mov  ebp,esp 89E5
0160:273195   sub  esp,00000028 81EC28000000
0160:27319B   inc  dword [00352C04] FF05042C3500
0160:2731A1   cmp  dword [00352BF4],0000 833DF42B350000
0160:2731A8   je   002731BE ($+14) 7414
0160:2731AA   cmp  dword [00352C04],0001 833D042C350001
0160:2731B1   je   002731BC ($+9) 7409
0160:2731B3   cmp  dword [00352BF8],0000 833DF82B350000
0160:2731BA   je   002731BE ($+2) 7402
0160:2731BC   jmp  short 002731C0 ($+2) EB02
0160:2731BE   jmp  short 002731D2 ($+12) EB12
0160:2731C0   call 002826A2 ($+f4dd) E8DDF40000
0160:2731C5   test eax,eax 85C0
0160:2731C7   jne  002731D2 ($+9) 7509
0160:2731C9   call 002726F0 ($-ade) E822F5FFFF
0160:2731CE   test eax,eax 85C0
0160:2731D0   jne  002731D4 ($+2) 7502
0160:2731D2   jmp  short 002731DD ($+9) EB09
0160:2731D4   mov  dword [ebp-000C],00000001 C745F401000000
0160:2731DB   jmp  short 002731E4 ($+7) EB07
0160:2731DD   mov  dword [ebp-000C],00000000 C745F400000000
0160:2731E4   cmp  dword [ebp-000C],0000 837DF400
0160:2731E8   je   00273206 ($+1c) 741C
0160:2731EA   mov  eax,[ebp+0014] 8B4514
0160:2731ED   push eax 50
0160:2731EE   mov  eax,[ebp+0010] 8B4510
0160:2731F1   push eax 50
0160:2731F2   mov  eax,002A34A8 B8A8342A00
0160:2731F7   push eax 50
0160:2731F8   push dword [00352BF0] FF35F02B3500
0160:2731FE   call 002828E3 ($+f6e0) E8E0F60000
0160:273203   add  esp,0010 83C410
0160:273206   mov  eax,[ebp+0014] 8B4514
0160:273209   push eax 50
0160:27320A   mov  eax,[ebp+0010] 8B4510
0160:27320D   push eax 50
0160:27320E   call 0027F3A0 ($+c18d) E88DC10000
0160:273213   add  esp,0008 83C408
0160:273216   mov  [ebp-0004],eax 8945FC
0160:273219   cmp  dword [ebp-0004],0000 837DFC00
0160:27321D   jz   00273540 ($+31d) 0F841D030000
0160:273223   cmp  dword [00352BF4],0000 833DF42B350000
0160:27322A   je   00273240 ($+14) 7414
0160:27322C   cmp  dword [00352C04],0001 833D042C350001
0160:273233   je   0027323E ($+9) 7409
0160:273235   cmp  dword [00352BF8],0000 833DF82B350000
0160:27323C   je   00273240 ($+2) 7402
0160:27323E   jmp  short 00273242 ($+2) EB02
0160:273240   jmp  short 0027324B ($+9) EB09
0160:273242   call 002826A2 ($+f45b) E85BF40000
0160:273247   test eax,eax 85C0
0160:273249   je   00273250 ($+5) 7405
0160:27324B   jmp  0027353B ($+2eb) E9EB020000
0160:273250   mov  dword [ebp-0010],00000000 C745F000000000
0160:273257   cmp  dword [ebp-0010],000E 837DF00E
0160:27325B   jc   00273267 ($+a) 720A
0160:27325D   jmp  short 0027327D ($+1e) EB1E
0160:27325F   mov  eax,[ebp-0010] 8B45F0
0160:273262   inc  dword [ebp-0010] FF45F0
0160:273265   jmp  short 00273257 ($-10) EBF0
0160:273267   mov  eax,002A326C B86C322A00
0160:27326C   push eax 50
0160:27326D   push dword [00352BF0] FF35F02B3500
0160:273273   call 002828E3 ($+f66b) E86BF60000
0160:273278   add  esp,0008 83C408
0160:27327B   jmp  short 0027325F ($-1e) EBE2
0160:27327D   mov  dword [ebp-0010],00000001 C745F001000000
0160:273284   mov  eax,[ebp-0010] 8B45F0
0160:273287   cmp  eax,[00352C04] 3B05042C3500
0160:27328D   jc   00273299 ($+a) 720A
0160:27328F   jmp  short 002732AF ($+1e) EB1E
0160:273291   mov  eax,[ebp-0010] 8B45F0
0160:273294   inc  dword [ebp-0010] FF45F0
0160:273297   jmp  short 00273284 ($-15) EBEB
0160:273299   mov  eax,002A3270 B870322A00
0160:27329E   push eax 50
0160:27329F   push dword [00352BF0] FF35F02B3500
0160:2732A5   call 002828E3 ($+f639) E839F60000
0160:2732AA   add  esp,0008 83C408
0160:2732AD   jmp  short 00273291 ($-1e) EBE2
0160:2732AF   mov  eax,[ebp+0010] 8B4510
0160:2732B2   add  eax,00000080 0580000000
0160:2732B7   push eax 50
0160:2732B8   mov  eax,002A34C4 B8C4342A00
0160:2732BD   push eax 50
0160:2732BE   push dword [00352BF0] FF35F02B3500
0160:2732C4   call 002828E3 ($+f61a) E81AF60000
0160:2732C9   add  esp,000C 83C40C
0160:2732CC   mov  dword [ebp-0014],00000000 C745EC00000000
0160:2732D3   cmp  dword [ebp-0014],000E 837DEC0E
0160:2732D7   jc   002732E3 ($+a) 720A
0160:2732D9   jmp  short 002732F9 ($+1e) EB1E
0160:2732DB   mov  eax,[ebp-0014] 8B45EC
0160:2732DE   inc  dword [ebp-0014] FF45EC
0160:2732E1   jmp  short 002732D3 ($-10) EBF0
0160:2732E3   mov  eax,002A326C B86C322A00
0160:2732E8   push eax 50
0160:2732E9   push dword [00352BF0] FF35F02B3500
0160:2732EF   call 002828E3 ($+f5ef) E8EFF50000
0160:2732F4   add  esp,0008 83C408
0160:2732F7   jmp  short 002732DB ($-1e) EBE2
0160:2732F9   mov  dword [ebp-0014],00000001 C745EC01000000
0160:273300   mov  eax,[ebp-0014] 8B45EC
0160:273303   cmp  eax,[00352C04] 3B05042C3500
0160:273309   jc   00273315 ($+a) 720A
0160:27330B   jmp  short 0027332B ($+1e) EB1E
0160:27330D   mov  eax,[ebp-0014] 8B45EC
0160:273310   inc  dword [ebp-0014] FF45EC
0160:273313   jmp  short 00273300 ($-15) EBEB
0160:273315   mov  eax,002A3270 B870322A00
0160:27331A   push eax 50
0160:27331B   push dword [00352BF0] FF35F02B3500
0160:273321   call 002828E3 ($+f5bd) E8BDF50000
0160:273326   add  esp,0008 83C408
0160:273329   jmp  short 0027330D ($-1e) EBE2
0160:27332B   mov  eax,[ebp+0010] 8B4510
0160:27332E   push eax 50
0160:27332F   mov  eax,002A34D4 B8D4342A00
0160:273334   push eax 50
0160:273335   push dword [00352BF0] FF35F02B3500
0160:27333B   call 002828E3 ($+f5a3) E8A3F50000
0160:273340   add  esp,000C 83C40C
0160:273343   mov  dword [ebp-0018],00000000 C745E800000000
0160:27334A   cmp  dword [ebp-0018],000E 837DE80E
0160:27334E   jc   0027335A ($+a) 720A
0160:273350   jmp  short 00273370 ($+1e) EB1E
0160:273352   mov  eax,[ebp-0018] 8B45E8
0160:273355   inc  dword [ebp-0018] FF45E8
0160:273358   jmp  short 0027334A ($-10) EBF0
0160:27335A   mov  eax,002A326C B86C322A00
0160:27335F   push eax 50
0160:273360   push dword [00352BF0] FF35F02B3500
0160:273366   call 002828E3 ($+f578) E878F50000
0160:27336B   add  esp,0008 83C408
0160:27336E   jmp  short 00273352 ($-1e) EBE2
0160:273370   mov  dword [ebp-0018],00000001 C745E801000000
0160:273377   mov  eax,[ebp-0018] 8B45E8
0160:27337A   cmp  eax,[00352C04] 3B05042C3500
0160:273380   jc   0027338C ($+a) 720A
0160:273382   jmp  short 002733A2 ($+1e) EB1E
0160:273384   mov  eax,[ebp-0018] 8B45E8
0160:273387   inc  dword [ebp-0018] FF45E8
0160:27338A   jmp  short 00273377 ($-15) EBEB
0160:27338C   mov  eax,002A3270 B870322A00
0160:273391   push eax 50
0160:273392   push dword [00352BF0] FF35F02B3500
0160:273398   call 002828E3 ($+f546) E846F50000
0160:27339D   add  esp,0008 83C408
0160:2733A0   jmp  short 00273384 ($-1e) EBE2
0160:2733A2   mov  eax,[ebp+0010] 8B4510
0160:2733A5   movsx eax,[eax+00000100] 0FBF8000010000
0160:2733AC   push eax 50
0160:2733AD   mov  eax,002A34E4 B8E4342A00
0160:2733B2   push eax 50
0160:2733B3   push dword [00352BF0] FF35F02B3500
0160:2733B9   call 002828E3 ($+f525) E825F50000
0160:2733BE   add  esp,000C 83C40C
0160:2733C1   mov  dword [ebp-001C],00000000 C745E400000000
0160:2733C8   cmp  dword [ebp-001C],000E 837DE40E
0160:2733CC   jc   002733D8 ($+a) 720A
0160:2733CE   jmp  short 002733EE ($+1e) EB1E
0160:2733D0   mov  eax,[ebp-001C] 8B45E4
0160:2733D3   inc  dword [ebp-001C] FF45E4
0160:2733D6   jmp  short 002733C8 ($-10) EBF0
0160:2733D8   mov  eax,002A326C B86C322A00
0160:2733DD   push eax 50
0160:2733DE   push dword [00352BF0] FF35F02B3500
0160:2733E4   call 002828E3 ($+f4fa) E8FAF40000
0160:2733E9   add  esp,0008 83C408
0160:2733EC   jmp  short 002733D0 ($-1e) EBE2
0160:2733EE   mov  dword [ebp-001C],00000001 C745E401000000
0160:2733F5   mov  eax,[ebp-001C] 8B45E4
0160:2733F8   cmp  eax,[00352C04] 3B05042C3500
0160:2733FE   jc   0027340A ($+a) 720A
0160:273400   jmp  short 00273420 ($+1e) EB1E
0160:273402   mov  eax,[ebp-001C] 8B45E4
0160:273405   inc  dword [ebp-001C] FF45E4
0160:273408   jmp  short 002733F5 ($-15) EBEB
0160:27340A   mov  eax,002A3270 B870322A00
0160:27340F   push eax 50
0160:273410   push dword [00352BF0] FF35F02B3500
0160:273416   call 002828E3 ($+f4c8) E8C8F40000
0160:27341B   add  esp,0008 83C408
0160:27341E   jmp  short 00273402 ($-1e) EBE2
0160:273420   mov  eax,[ebp+0010] 8B4510
0160:273423   movsx eax,[eax+00000102] 0FBF8002010000
0160:27342A   push eax 50
0160:27342B   mov  eax,002A34F4 B8F4342A00
0160:273430   push eax 50
0160:273431   push dword [00352BF0] FF35F02B3500
0160:273437   call 002828E3 ($+f4a7) E8A7F40000
0160:27343C   add  esp,000C 83C40C
0160:27343F   mov  dword [ebp-0020],00000000 C745E000000000
0160:273446   cmp  dword [ebp-0020],000E 837DE00E
0160:27344A   jc   00273456 ($+a) 720A
0160:27344C   jmp  short 0027346C ($+1e) EB1E
0160:27344E   mov  eax,[ebp-0020] 8B45E0
0160:273451   inc  dword [ebp-0020] FF45E0
0160:273454   jmp  short 00273446 ($-10) EBF0
0160:273456   mov  eax,002A326C B86C322A00
0160:27345B   push eax 50
0160:27345C   push dword [00352BF0] FF35F02B3500
0160:273462   call 002828E3 ($+f47c) E87CF40000
0160:273467   add  esp,0008 83C408
0160:27346A   jmp  short 0027344E ($-1e) EBE2
0160:27346C   mov  dword [ebp-0020],00000001 C745E001000000
0160:273473   mov  eax,[ebp-0020] 8B45E0
0160:273476   cmp  eax,[00352C04] 3B05042C3500
0160:27347C   jc   00273488 ($+a) 720A
0160:27347E   jmp  short 0027349E ($+1e) EB1E
0160:273480   mov  eax,[ebp-0020] 8B45E0
0160:273483   inc  dword [ebp-0020] FF45E0
0160:273486   jmp  short 00273473 ($-15) EBEB
0160:273488   mov  eax,002A3270 B870322A00
0160:27348D   push eax 50
0160:27348E   push dword [00352BF0] FF35F02B3500
0160:273494   call 002828E3 ($+f44a) E84AF40000
0160:273499   add  esp,0008 83C408
0160:27349C   jmp  short 00273480 ($-1e) EBE2
0160:27349E   mov  eax,[ebp+0010] 8B4510
0160:2734A1   movsx eax,[eax+00000104] 0FBF8004010000
0160:2734A8   push eax 50
0160:2734A9   mov  eax,002A3504 B804352A00
0160:2734AE   push eax 50
0160:2734AF   push dword [00352BF0] FF35F02B3500
0160:2734B5   call 002828E3 ($+f429) E829F40000
0160:2734BA   add  esp,000C 83C40C
0160:2734BD   mov  dword [ebp-0024],00000000 C745DC00000000
0160:2734C4   cmp  dword [ebp-0024],000E 837DDC0E
0160:2734C8   jc   002734D4 ($+a) 720A
0160:2734CA   jmp  short 002734EA ($+1e) EB1E
0160:2734CC   mov  eax,[ebp-0024] 8B45DC
0160:2734CF   inc  dword [ebp-0024] FF45DC
0160:2734D2   jmp  short 002734C4 ($-10) EBF0
0160:2734D4   mov  eax,002A326C B86C322A00
0160:2734D9   push eax 50
0160:2734DA   push dword [00352BF0] FF35F02B3500
0160:2734E0   call 002828E3 ($+f3fe) E8FEF30000
0160:2734E5   add  esp,0008 83C408
0160:2734E8   jmp  short 002734CC ($-1e) EBE2
0160:2734EA   mov  dword [ebp-0024],00000001 C745DC01000000
0160:2734F1   mov  eax,[ebp-0024] 8B45DC
0160:2734F4   cmp  eax,[00352C04] 3B05042C3500
0160:2734FA   jc   00273506 ($+a) 720A
0160:2734FC   jmp  short 0027351C ($+1e) EB1E
0160:2734FE   mov  eax,[ebp-0024] 8B45DC
0160:273501   inc  dword [ebp-0024] FF45DC
0160:273504   jmp  short 002734F1 ($-15) EBEB
0160:273506   mov  eax,002A3270 B870322A00
0160:27350B   push eax 50
0160:27350C   push dword [00352BF0] FF35F02B3500
0160:273512   call 002828E3 ($+f3cc) E8CCF30000
0160:273517   add  esp,0008 83C408
0160:27351A   jmp  short 002734FE ($-1e) EBE2
0160:27351C   mov  eax,[ebp+0010] 8B4510
0160:27351F   movsx eax,[eax+00000106] 0FBF8006010000
0160:273526   push eax 50
0160:273527   mov  eax,002A3514 B814352A00
0160:27352C   push eax 50
0160:27352D   push dword [00352BF0] FF35F02B3500
0160:273533   call 002828E3 ($+f3ab) E8ABF30000
0160:273538   add  esp,000C 83C40C
0160:27353B   jmp  002735E4 ($+a4) E9A4000000
0160:273540   cmp  dword [00352BF4],0000 833DF42B350000
0160:273547   je   0027355D ($+14) 7414
0160:273549   cmp  dword [00352C04],0001 833D042C350001
0160:273550   je   0027355B ($+9) 7409
0160:273552   cmp  dword [00352BF8],0000 833DF82B350000
0160:273559   je   0027355D ($+2) 7402
0160:27355B   jmp  short 0027355F ($+2) EB02
0160:27355D   jmp  short 00273568 ($+9) EB09
0160:27355F   call 002826A2 ($+f13e) E83EF10000
0160:273564   test eax,eax 85C0
0160:273566   je   0027356D ($+5) 7405
0160:273568   jmp  002735E4 ($+77) E977000000
0160:27356D   mov  dword [ebp-0028],00000000 C745D800000000
0160:273574   cmp  dword [ebp-0028],000E 837DD80E
0160:273578   jc   00273584 ($+a) 720A
0160:27357A   jmp  short 0027359A ($+1e) EB1E
0160:27357C   mov  eax,[ebp-0028] 8B45D8
0160:27357F   inc  dword [ebp-0028] FF45D8
0160:273582   jmp  short 00273574 ($-10) EBF0
0160:273584   mov  eax,002A326C B86C322A00
0160:273589   push eax 50
0160:27358A   push dword [00352BF0] FF35F02B3500
0160:273590   call 002828E3 ($+f34e) E84EF30000
0160:273595   add  esp,0008 83C408
0160:273598   jmp  short 0027357C ($-1e) EBE2
0160:27359A   mov  dword [ebp-0028],00000001 C745D801000000
0160:2735A1   mov  eax,[ebp-0028] 8B45D8
0160:2735A4   cmp  eax,[00352C04] 3B05042C3500
0160:2735AA   jc   002735B6 ($+a) 720A
0160:2735AC   jmp  short 002735CC ($+1e) EB1E
0160:2735AE   mov  eax,[ebp-0028] 8B45D8
0160:2735B1   inc  dword [ebp-0028] FF45D8
0160:2735B4   jmp  short 002735A1 ($-15) EBEB
0160:2735B6   mov  eax,002A3270 B870322A00
0160:2735BB   push eax 50
0160:2735BC   push dword [00352BF0] FF35F02B3500
0160:2735C2   call 002828E3 ($+f31c) E81CF30000
0160:2735C7   add  esp,0008 83C408
0160:2735CA   jmp  short 002735AE ($-1e) EBE2
0160:2735CC   mov  eax,[ebp-0004] 8B45FC
0160:2735CF   push eax 50
0160:2735D0   mov  eax,002A3524 B824352A00
0160:2735D5   push eax 50
0160:2735D6   push dword [00352BF0] FF35F02B3500
0160:2735DC   call 002828E3 ($+f302) E802F30000
0160:2735E1   add  esp,000C 83C40C
0160:2735E4   dec  dword [00352C04] FF0D042C3500
0160:2735EA   mov  eax,[ebp-0004] 8B45FC
0160:2735ED   mov  [ebp-0008],eax 8945F8
0160:2735F0   mov  eax,[ebp-0008] 8B45F8
0160:2735F3   mov  esp,ebp 89EC
0160:2735F5   pop  ebp 5D
0160:2735F6   pop  edi 5F
0160:2735F7   pop  esi 5E
0160:2735F8   ret C3
0160:2735F9   lea  eax,[eax+00000000] 8D8000000000
0160:2735FF   nop 90
0160:273600   push esi 56
0160:273601   push edi 57
0160:273602   push ebp 55
0160:273603   mov  ebp,esp 89E5
0160:273605   sub  esp,00000010 81EC10000000
0160:27360B   inc  dword [00352C04] FF05042C3500
0160:273611   cmp  dword [00352BF4],0000 833DF42B350000
0160:273618   je   0027362E ($+14) 7414
0160:27361A   cmp  dword [00352C04],0001 833D042C350001
0160:273621   je   0027362C ($+9) 7409
0160:273623   cmp  dword [00352BF8],0000 833DF82B350000
0160:27362A   je   0027362E ($+2) 7402
0160:27362C   jmp  short 00273630 ($+2) EB02
0160:27362E   jmp  short 00273642 ($+12) EB12
0160:273630   call 002826A2 ($+f06d) E86DF00000
0160:273635   test eax,eax 85C0
0160:273637   jne  00273642 ($+9) 7509
0160:273639   call 002726F0 ($-f4e) E8B2F0FFFF
0160:27363E   test eax,eax 85C0
0160:273640   jne  00273644 ($+2) 7502
0160:273642   jmp  short 0027364D ($+9) EB09
0160:273644   mov  dword [ebp-000C],00000001 C745F401000000
0160:27364B   jmp  short 00273654 ($+7) EB07
0160:27364D   mov  dword [ebp-000C],00000000 C745F400000000
0160:273654   cmp  dword [ebp-000C],0000 837DF400
0160:273658   je   00273672 ($+18) 7418
0160:27365A   mov  eax,[ebp+0010] 8B4510
0160:27365D   push eax 50
0160:27365E   mov  eax,002A3534 B834352A00
0160:273663   push eax 50
0160:273664   push dword [00352BF0] FF35F02B3500
0160:27366A   call 002828E3 ($+f274) E874F20000
0160:27366F   add  esp,000C 83C40C
0160:273672   mov  eax,[ebp+0010] 8B4510
0160:273675   push eax 50
0160:273676   call 002826AE ($+f033) E833F00000
0160:27367B   add  esp,0004 83C404
0160:27367E   mov  [ebp-0004],eax 8945FC
0160:273681   cmp  dword [00352BF4],0000 833DF42B350000
0160:273688   je   0027369E ($+14) 7414
0160:27368A   cmp  dword [00352C04],0001 833D042C350001
0160:273691   je   0027369C ($+9) 7409
0160:273693   cmp  dword [00352BF8],0000 833DF82B350000
0160:27369A   je   0027369E ($+2) 7402
0160:27369C   jmp  short 002736A0 ($+2) EB02
0160:27369E   jmp  short 002736A9 ($+9) EB09
0160:2736A0   call 002826A2 ($+effd) E8FDEF0000
0160:2736A5   test eax,eax 85C0
0160:2736A7   je   002736AE ($+5) 7405
0160:2736A9   jmp  00273725 ($+77) E977000000
0160:2736AE   mov  dword [ebp-0010],00000000 C745F000000000
0160:2736B5   cmp  dword [ebp-0010],000E 837DF00E
0160:2736B9   jc   002736C5 ($+a) 720A
0160:2736BB   jmp  short 002736DB ($+1e) EB1E
0160:2736BD   mov  eax,[ebp-0010] 8B45F0
0160:2736C0   inc  dword [ebp-0010] FF45F0
0160:2736C3   jmp  short 002736B5 ($-10) EBF0
0160:2736C5   mov  eax,002A326C B86C322A00
0160:2736CA   push eax 50
0160:2736CB   push dword [00352BF0] FF35F02B3500
0160:2736D1   call 002828E3 ($+f20d) E80DF20000
0160:2736D6   add  esp,0008 83C408
0160:2736D9   jmp  short 002736BD ($-1e) EBE2
0160:2736DB   mov  dword [ebp-0010],00000001 C745F001000000
0160:2736E2   mov  eax,[ebp-0010] 8B45F0
0160:2736E5   cmp  eax,[00352C04] 3B05042C3500
0160:2736EB   jc   002736F7 ($+a) 720A
0160:2736ED   jmp  short 0027370D ($+1e) EB1E
0160:2736EF   mov  eax,[ebp-0010] 8B45F0
0160:2736F2   inc  dword [ebp-0010] FF45F0
0160:2736F5   jmp  short 002736E2 ($-15) EBEB
0160:2736F7   mov  eax,002A3270 B870322A00
0160:2736FC   push eax 50
0160:2736FD   push dword [00352BF0] FF35F02B3500
0160:273703   call 002828E3 ($+f1db) E8DBF10000
0160:273708   add  esp,0008 83C408
0160:27370B   jmp  short 002736EF ($-1e) EBE2
0160:27370D   mov  eax,[ebp-0004] 8B45FC
0160:273710   push eax 50
0160:273711   mov  eax,002A3524 B824352A00
0160:273716   push eax 50
0160:273717   push dword [00352BF0] FF35F02B3500
0160:27371D   call 002828E3 ($+f1c1) E8C1F10000
0160:273722   add  esp,000C 83C40C
0160:273725   dec  dword [00352C04] FF0D042C3500
0160:27372B   mov  eax,[ebp-0004] 8B45FC
0160:27372E   mov  [ebp-0008],eax 8945F8
0160:273731   mov  eax,[ebp-0008] 8B45F8
0160:273734   mov  esp,ebp 89EC
0160:273736   pop  ebp 5D
0160:273737   pop  edi 5F
0160:273738   pop  esi 5E
0160:273739   ret C3
0160:27373A   lea  eax,[eax+00000000] 8D8000000000
0160:273740   push esi 56
0160:273741   push edi 57
0160:273742   push ebp 55
0160:273743   mov  ebp,esp 89E5
0160:273745   sub  esp,00000010 81EC10000000
0160:27374B   inc  dword [00352C04] FF05042C3500
0160:273751   cmp  dword [00352BF4],0000 833DF42B350000
0160:273758   je   0027376E ($+14) 7414
0160:27375A   cmp  dword [00352C04],0001 833D042C350001
0160:273761   je   0027376C ($+9) 7409
0160:273763   cmp  dword [00352BF8],0000 833DF82B350000
0160:27376A   je   0027376E ($+2) 7402
0160:27376C   jmp  short 00273770 ($+2) EB02
0160:27376E   jmp  short 00273782 ($+12) EB12
0160:273770   call 002826A2 ($+ef2d) E82DEF0000
0160:273775   test eax,eax 85C0
0160:273777   jne  00273782 ($+9) 7509
0160:273779   call 002726F0 ($-108e) E872EFFFFF
0160:27377E   test eax,eax 85C0
0160:273780   jne  00273784 ($+2) 7502
0160:273782   jmp  short 0027378D ($+9) EB09
0160:273784   mov  dword [ebp-000C],00000001 C745F401000000
0160:27378B   jmp  short 00273794 ($+7) EB07
0160:27378D   mov  dword [ebp-000C],00000000 C745F400000000
0160:273794   cmp  dword [ebp-000C],0000 837DF400
0160:273798   je   002737B6 ($+1c) 741C
0160:27379A   mov  eax,[ebp+0014] 8B4514
0160:27379D   push eax 50
0160:27379E   mov  eax,[ebp+0010] 8B4510
0160:2737A1   push eax 50
0160:2737A2   mov  eax,002A3550 B850352A00
0160:2737A7   push eax 50
0160:2737A8   push dword [00352BF0] FF35F02B3500
0160:2737AE   call 002828E3 ($+f130) E830F10000
0160:2737B3   add  esp,0010 83C410
0160:2737B6   mov  eax,[ebp+0014] 8B4514
0160:2737B9   push eax 50
0160:2737BA   mov  eax,[ebp+0010] 8B4510
0160:2737BD   push eax 50
0160:2737BE   call 002826F5 ($+ef32) E832EF0000
0160:2737C3   add  esp,0008 83C408
0160:2737C6   mov  [ebp-0004],eax 8945FC
0160:2737C9   cmp  dword [00352BF4],0000 833DF42B350000
0160:2737D0   je   002737E6 ($+14) 7414
0160:2737D2   cmp  dword [00352C04],0001 833D042C350001
0160:2737D9   je   002737E4 ($+9) 7409
0160:2737DB   cmp  dword [00352BF8],0000 833DF82B350000
0160:2737E2   je   002737E6 ($+2) 7402
0160:2737E4   jmp  short 002737E8 ($+2) EB02
0160:2737E6   jmp  short 002737F1 ($+9) EB09
0160:2737E8   call 002826A2 ($+eeb5) E8B5EE0000
0160:2737ED   test eax,eax 85C0
0160:2737EF   je   002737F6 ($+5) 7405
0160:2737F1   jmp  0027386D ($+77) E977000000
0160:2737F6   mov  dword [ebp-0010],00000000 C745F000000000
0160:2737FD   cmp  dword [ebp-0010],000E 837DF00E
0160:273801   jc   0027380D ($+a) 720A
0160:273803   jmp  short 00273823 ($+1e) EB1E
0160:273805   mov  eax,[ebp-0010] 8B45F0
0160:273808   inc  dword [ebp-0010] FF45F0
0160:27380B   jmp  short 002737FD ($-10) EBF0
0160:27380D   mov  eax,002A326C B86C322A00
0160:273812   push eax 50
0160:273813   push dword [00352BF0] FF35F02B3500
0160:273819   call 002828E3 ($+f0c5) E8C5F00000
0160:27381E   add  esp,0008 83C408
0160:273821   jmp  short 00273805 ($-1e) EBE2
0160:273823   mov  dword [ebp-0010],00000001 C745F001000000
0160:27382A   mov  eax,[ebp-0010] 8B45F0
0160:27382D   cmp  eax,[00352C04] 3B05042C3500
0160:273833   jc   0027383F ($+a) 720A
0160:273835   jmp  short 00273855 ($+1e) EB1E
0160:273837   mov  eax,[ebp-0010] 8B45F0
0160:27383A   inc  dword [ebp-0010] FF45F0
0160:27383D   jmp  short 0027382A ($-15) EBEB
0160:27383F   mov  eax,002A3270 B870322A00
0160:273844   push eax 50
0160:273845   push dword [00352BF0] FF35F02B3500
0160:27384B   call 002828E3 ($+f093) E893F00000
0160:273850   add  esp,0008 83C408
0160:273853   jmp  short 00273837 ($-1e) EBE2
0160:273855   mov  eax,[ebp-0004] 8B45FC
0160:273858   push eax 50
0160:273859   mov  eax,002A3524 B824352A00
0160:27385E   push eax 50
0160:27385F   push dword [00352BF0] FF35F02B3500
0160:273865   call 002828E3 ($+f079) E879F00000
0160:27386A   add  esp,000C 83C40C
0160:27386D   dec  dword [00352C04] FF0D042C3500
0160:273873   mov  eax,[ebp-0004] 8B45FC
0160:273876   mov  [ebp-0008],eax 8945F8
0160:273879   mov  eax,[ebp-0008] 8B45F8
0160:27387C   mov  esp,ebp 89EC
0160:27387E   pop  ebp 5D
0160:27387F   pop  edi 5F
0160:273880   pop  esi 5E
0160:273881   ret C3
0160:273882   lea  eax,[eax+00000000] 8D8000000000
0160:273888   lea  edx,[edx+00000000] 8D9200000000
0160:27388E   mov  eax,eax 8BC0
0160:273890   push esi 56
0160:273891   push edi 57
0160:273892   push ebp 55
0160:273893   mov  ebp,esp 89E5
0160:273895   sub  esp,00000004 81EC04000000
0160:27389B   inc  dword [00352C04] FF05042C3500
0160:2738A1   cmp  dword [00352BF4],0000 833DF42B350000
0160:2738A8   je   002738BE ($+14) 7414
0160:2738AA   cmp  dword [00352C04],0001 833D042C350001
0160:2738B1   je   002738BC ($+9) 7409
0160:2738B3   cmp  dword [00352BF8],0000 833DF82B350000
0160:2738BA   je   002738BE ($+2) 7402
0160:2738BC   jmp  short 002738C0 ($+2) EB02
0160:2738BE   jmp  short 002738D2 ($+12) EB12
0160:2738C0   call 002826A2 ($+eddd) E8DDED0000
0160:2738C5   test eax,eax 85C0
0160:2738C7   jne  002738D2 ($+9) 7509
0160:2738C9   call 002726F0 ($-11de) E822EEFFFF
0160:2738CE   test eax,eax 85C0
0160:2738D0   jne  002738D4 ($+2) 7502
0160:2738D2   jmp  short 002738DD ($+9) EB09
0160:2738D4   mov  dword [ebp-0004],00000001 C745FC01000000
0160:2738DB   jmp  short 002738E4 ($+7) EB07
0160:2738DD   mov  dword [ebp-0004],00000000 C745FC00000000
0160:2738E4   cmp  dword [ebp-0004],0000 837DFC00
0160:2738E8   je   00273906 ($+1c) 741C
0160:2738EA   mov  eax,[ebp+0014] 8B4514
0160:2738ED   push eax 50
0160:2738EE   mov  eax,[ebp+0010] 8B4510
0160:2738F1   push eax 50
0160:2738F2   mov  eax,002A356C B86C352A00
0160:2738F7   push eax 50
0160:2738F8   push dword [00352BF0] FF35F02B3500
0160:2738FE   call 002828E3 ($+efe0) E8E0EF0000
0160:273903   add  esp,0010 83C410
0160:273906   mov  eax,[ebp+0014] 8B4514
0160:273909   push eax 50
0160:27390A   mov  eax,[ebp+0010] 8B4510
0160:27390D   push eax 50
0160:27390E   call 00282810 ($+eefd) E8FDEE0000
0160:273913   add  esp,0008 83C408
0160:273916   dec  dword [00352C04] FF0D042C3500
0160:27391C   mov  esp,ebp 89EC
0160:27391E   pop  ebp 5D
0160:27391F   pop  edi 5F
0160:273920   pop  esi 5E
0160:273921   ret C3
0160:273922   lea  eax,[eax+00000000] 8D8000000000
0160:273928   lea  edx,[edx+00000000] 8D9200000000
0160:27392E   mov  eax,eax 8BC0
0160:273930   push esi 56
0160:273931   push edi 57
0160:273932   push ebp 55
0160:273933   mov  ebp,esp 89E5
0160:273935   sub  esp,00000004 81EC04000000
0160:27393B   inc  dword [00352C04] FF05042C3500
0160:273941   cmp  dword [00352BF4],0000 833DF42B350000
0160:273948   je   0027395E ($+14) 7414
0160:27394A   cmp  dword [00352C04],0001 833D042C350001
0160:273951   je   0027395C ($+9) 7409
0160:273953   cmp  dword [00352BF8],0000 833DF82B350000
0160:27395A   je   0027395E ($+2) 7402
0160:27395C   jmp  short 00273960 ($+2) EB02
0160:27395E   jmp  short 00273972 ($+12) EB12
0160:273960   call 002826A2 ($+ed3d) E83DED0000
0160:273965   test eax,eax 85C0
0160:273967   jne  00273972 ($+9) 7509
0160:273969   call 002726F0 ($-127e) E882EDFFFF
0160:27396E   test eax,eax 85C0
0160:273970   jne  00273974 ($+2) 7502
0160:273972   jmp  short 0027397D ($+9) EB09
0160:273974   mov  dword [ebp-0004],00000001 C745FC01000000
0160:27397B   jmp  short 00273984 ($+7) EB07
0160:27397D   mov  dword [ebp-0004],00000000 C745FC00000000
0160:273984   cmp  dword [ebp-0004],0000 837DFC00
0160:273988   je   002739A6 ($+1c) 741C
0160:27398A   mov  eax,[ebp+0014] 8B4514
0160:27398D   push eax 50
0160:27398E   mov  eax,[ebp+0010] 8B4510
0160:273991   push eax 50
0160:273992   mov  eax,002A358C B88C352A00
0160:273997   push eax 50
0160:273998   push dword [00352BF0] FF35F02B3500
0160:27399E   call 002828E3 ($+ef40) E840EF0000
0160:2739A3   add  esp,0010 83C410
0160:2739A6   mov  eax,[ebp+0014] 8B4514
0160:2739A9   push eax 50
0160:2739AA   mov  eax,[ebp+0010] 8B4510
0160:2739AD   push eax 50
0160:2739AE   call 00282840 ($+ee8d) E88DEE0000
0160:2739B3   add  esp,0008 83C408
0160:2739B6   dec  dword [00352C04] FF0D042C3500
0160:2739BC   mov  esp,ebp 89EC
0160:2739BE   pop  ebp 5D
0160:2739BF   pop  edi 5F
0160:2739C0   pop  esi 5E
0160:2739C1   ret C3
0160:2739C2   lea  eax,[eax+00000000] 8D8000000000
0160:2739C8   lea  edx,[edx+00000000] 8D9200000000
0160:2739CE   mov  eax,eax 8BC0
0160:2739D0   push esi 56
0160:2739D1   push edi 57
0160:2739D2   push ebp 55
0160:2739D3   mov  ebp,esp 89E5
0160:2739D5   sub  esp,00000004 81EC04000000
0160:2739DB   inc  dword [00352C04] FF05042C3500
0160:2739E1   cmp  dword [00352BF4],0000 833DF42B350000
0160:2739E8   je   002739FE ($+14) 7414
0160:2739EA   cmp  dword [00352C04],0001 833D042C350001
0160:2739F1   je   002739FC ($+9) 7409
0160:2739F3   cmp  dword [00352BF8],0000 833DF82B350000
0160:2739FA   je   002739FE ($+2) 7402
0160:2739FC   jmp  short 00273A00 ($+2) EB02
0160:2739FE   jmp  short 00273A12 ($+12) EB12
0160:273A00   call 002826A2 ($+ec9d) E89DEC0000
0160:273A05   test eax,eax 85C0
0160:273A07   jne  00273A12 ($+9) 7509
0160:273A09   call 002726F0 ($-131e) E8E2ECFFFF
0160:273A0E   test eax,eax 85C0
0160:273A10   jne  00273A14 ($+2) 7502
0160:273A12   jmp  short 00273A1D ($+9) EB09
0160:273A14   mov  dword [ebp-0004],00000001 C745FC01000000
0160:273A1B   jmp  short 00273A24 ($+7) EB07
0160:273A1D   mov  dword [ebp-0004],00000000 C745FC00000000
0160:273A24   cmp  dword [ebp-0004],0000 837DFC00
0160:273A28   je   00273A46 ($+1c) 741C
0160:273A2A   mov  eax,[ebp+0014] 8B4514
0160:273A2D   push eax 50
0160:273A2E   mov  eax,[ebp+0010] 8B4510
0160:273A31   push eax 50
0160:273A32   mov  eax,002A35AC B8AC352A00
0160:273A37   push eax 50
0160:273A38   push dword [00352BF0] FF35F02B3500
0160:273A3E   call 002828E3 ($+eea0) E8A0EE0000
0160:273A43   add  esp,0010 83C410
0160:273A46   mov  eax,[ebp+0014] 8B4514
0160:273A49   push eax 50
0160:273A4A   mov  eax,[ebp+0010] 8B4510
0160:273A4D   push eax 50
0160:273A4E   call 00282870 ($+ee1d) E81DEE0000
0160:273A53   add  esp,0008 83C408
0160:273A56   dec  dword [00352C04] FF0D042C3500
0160:273A5C   mov  esp,ebp 89EC
0160:273A5E   pop  ebp 5D
0160:273A5F   pop  edi 5F
0160:273A60   pop  esi 5E
0160:273A61   ret C3
0160:273A62   lea  eax,[eax+00000000] 8D8000000000
0160:273A68   lea  edx,[edx+00000000] 8D9200000000
0160:273A6E   mov  eax,eax 8BC0
0160:273A70   push esi 56
0160:273A71   push edi 57
0160:273A72   push ebp 55
0160:273A73   mov  ebp,esp 89E5
0160:273A75   sub  esp,00000010 81EC10000000
0160:273A7B   inc  dword [00352C04] FF05042C3500
0160:273A81   cmp  dword [00352BF4],0000 833DF42B350000
0160:273A88   je   00273A9E ($+14) 7414
0160:273A8A   cmp  dword [00352C04],0001 833D042C350001
0160:273A91   je   00273A9C ($+9) 7409
0160:273A93   cmp  dword [00352BF8],0000 833DF82B350000
0160:273A9A   je   00273A9E ($+2) 7402
0160:273A9C   jmp  short 00273AA0 ($+2) EB02
0160:273A9E   jmp  short 00273AB2 ($+12) EB12
0160:273AA0   call 002826A2 ($+ebfd) E8FDEB0000
0160:273AA5   test eax,eax 85C0
0160:273AA7   jne  00273AB2 ($+9) 7509
0160:273AA9   call 002726F0 ($-13be) E842ECFFFF
0160:273AAE   test eax,eax 85C0
0160:273AB0   jne  00273AB4 ($+2) 7502
0160:273AB2   jmp  short 00273ABD ($+9) EB09
0160:273AB4   mov  dword [ebp-000C],00000001 C745F401000000
0160:273ABB   jmp  short 00273AC4 ($+7) EB07
0160:273ABD   mov  dword [ebp-000C],00000000 C745F400000000
0160:273AC4   cmp  dword [ebp-000C],0000 837DF400
0160:273AC8   je   00273ADE ($+14) 7414
0160:273ACA   mov  eax,002A35CC B8CC352A00
0160:273ACF   push eax 50
0160:273AD0   push dword [00352BF0] FF35F02B3500
0160:273AD6   call 002828E3 ($+ee08) E808EE0000
0160:273ADB   add  esp,0008 83C408
0160:273ADE   call 002828B2 ($+edcf) E8CFED0000
0160:273AE3   mov  [ebp-0004],eax 8945FC
0160:273AE6   cmp  dword [00352BF4],0000 833DF42B350000
0160:273AED   je   00273B03 ($+14) 7414
0160:273AEF   cmp  dword [00352C04],0001 833D042C350001
0160:273AF6   je   00273B01 ($+9) 7409
0160:273AF8   cmp  dword [00352BF8],0000 833DF82B350000
0160:273AFF   je   00273B03 ($+2) 7402
0160:273B01   jmp  short 00273B05 ($+2) EB02
0160:273B03   jmp  short 00273B0E ($+9) EB09
0160:273B05   call 002826A2 ($+eb98) E898EB0000
0160:273B0A   test eax,eax 85C0
0160:273B0C   je   00273B13 ($+5) 7405
0160:273B0E   jmp  00273B8A ($+77) E977000000
0160:273B13   mov  dword [ebp-0010],00000000 C745F000000000
0160:273B1A   cmp  dword [ebp-0010],000E 837DF00E
0160:273B1E   jc   00273B2A ($+a) 720A
0160:273B20   jmp  short 00273B40 ($+1e) EB1E
0160:273B22   mov  eax,[ebp-0010] 8B45F0
0160:273B25   inc  dword [ebp-0010] FF45F0
0160:273B28   jmp  short 00273B1A ($-10) EBF0
0160:273B2A   mov  eax,002A326C B86C322A00
0160:273B2F   push eax 50
0160:273B30   push dword [00352BF0] FF35F02B3500
0160:273B36   call 002828E3 ($+eda8) E8A8ED0000
0160:273B3B   add  esp,0008 83C408
0160:273B3E   jmp  short 00273B22 ($-1e) EBE2
0160:273B40   mov  dword [ebp-0010],00000001 C745F001000000
0160:273B47   mov  eax,[ebp-0010] 8B45F0
0160:273B4A   cmp  eax,[00352C04] 3B05042C3500
0160:273B50   jc   00273B5C ($+a) 720A
0160:273B52   jmp  short 00273B72 ($+1e) EB1E
0160:273B54   mov  eax,[ebp-0010] 8B45F0
0160:273B57   inc  dword [ebp-0010] FF45F0
0160:273B5A   jmp  short 00273B47 ($-15) EBEB
0160:273B5C   mov  eax,002A3270 B870322A00
0160:273B61   push eax 50
0160:273B62   push dword [00352BF0] FF35F02B3500
0160:273B68   call 002828E3 ($+ed76) E876ED0000
0160:273B6D   add  esp,0008 83C408
0160:273B70   jmp  short 00273B54 ($-1e) EBE2
0160:273B72   mov  eax,[ebp-0004] 8B45FC
0160:273B75   push eax 50
0160:273B76   mov  eax,002A3524 B824352A00
0160:273B7B   push eax 50
0160:273B7C   push dword [00352BF0] FF35F02B3500
0160:273B82   call 002828E3 ($+ed5c) E85CED0000
0160:273B87   add  esp,000C 83C40C
0160:273B8A   dec  dword [00352C04] FF0D042C3500
0160:273B90   mov  eax,[ebp-0004] 8B45FC
0160:273B93   mov  [ebp-0008],eax 8945F8
0160:273B96   mov  eax,[ebp-0008] 8B45F8
0160:273B99   mov  esp,ebp 89EC
0160:273B9B   pop  ebp 5D
0160:273B9C   pop  edi 5F
0160:273B9D   pop  esi 5E
0160:273B9E   ret C3
0160:273B9F   nop 90
0160:273BA0   push esi 56
0160:273BA1   push edi 57
0160:273BA2   push ebp 55
0160:273BA3   mov  ebp,esp 89E5
0160:273BA5   sub  esp,00000004 81EC04000000
0160:273BAB   inc  dword [00352C04] FF05042C3500
0160:273BB1   cmp  dword [00352BF4],0000 833DF42B350000
0160:273BB8   je   00273BCE ($+14) 7414
0160:273BBA   cmp  dword [00352C04],0001 833D042C350001
0160:273BC1   je   00273BCC ($+9) 7409
0160:273BC3   cmp  dword [00352BF8],0000 833DF82B350000
0160:273BCA   je   00273BCE ($+2) 7402
0160:273BCC   jmp  short 00273BD0 ($+2) EB02
0160:273BCE   jmp  short 00273BE2 ($+12) EB12
0160:273BD0   call 002826A2 ($+eacd) E8CDEA0000
0160:273BD5   test eax,eax 85C0
0160:273BD7   jne  00273BE2 ($+9) 7509
0160:273BD9   call 002726F0 ($-14ee) E812EBFFFF
0160:273BDE   test eax,eax 85C0
0160:273BE0   jne  00273BE4 ($+2) 7502
0160:273BE2   jmp  short 00273BED ($+9) EB09
0160:273BE4   mov  dword [ebp-0004],00000001 C745FC01000000
0160:273BEB   jmp  short 00273BF4 ($+7) EB07
0160:273BED   mov  dword [ebp-0004],00000000 C745FC00000000
0160:273BF4   cmp  dword [ebp-0004],0000 837DFC00
0160:273BF8   je   00273C12 ($+18) 7418
0160:273BFA   mov  eax,[ebp+0010] 8B4510
0160:273BFD   push eax 50
0160:273BFE   mov  eax,002A35E8 B8E8352A00
0160:273C03   push eax 50
0160:273C04   push dword [00352BF0] FF35F02B3500
0160:273C0A   call 002828E3 ($+ecd4) E8D4EC0000
0160:273C0F   add  esp,000C 83C40C
0160:273C12   mov  eax,[ebp+0010] 8B4510
0160:273C15   push eax 50
0160:273C16   call 00282768 ($+eb4d) E84DEB0000
0160:273C1B   add  esp,0004 83C404
0160:273C1E   dec  dword [00352C04] FF0D042C3500
0160:273C24   mov  esp,ebp 89EC
0160:273C26   pop  ebp 5D
0160:273C27   pop  edi 5F
0160:273C28   pop  esi 5E
0160:273C29   ret C3
0160:273C2A   lea  eax,[eax+00000000] 8D8000000000
0160:273C30   push esi 56
0160:273C31   push edi 57
0160:273C32   push ebp 55
0160:273C33   mov  ebp,esp 89E5
0160:273C35   sub  esp,00000004 81EC04000000
0160:273C3B   inc  dword [00352C04] FF05042C3500
0160:273C41   cmp  dword [00352BF4],0000 833DF42B350000
0160:273C48   je   00273C5E ($+14) 7414
0160:273C4A   cmp  dword [00352C04],0001 833D042C350001
0160:273C51   je   00273C5C ($+9) 7409
0160:273C53   cmp  dword [00352BF8],0000 833DF82B350000
0160:273C5A   je   00273C5E ($+2) 7402
0160:273C5C   jmp  short 00273C60 ($+2) EB02
0160:273C5E   jmp  short 00273C72 ($+12) EB12
0160:273C60   call 002826A2 ($+ea3d) E83DEA0000
0160:273C65   test eax,eax 85C0
0160:273C67   jne  00273C72 ($+9) 7509
0160:273C69   call 002726F0 ($-157e) E882EAFFFF
0160:273C6E   test eax,eax 85C0
0160:273C70   jne  00273C74 ($+2) 7502
0160:273C72   jmp  short 00273C7D ($+9) EB09
0160:273C74   mov  dword [ebp-0004],00000001 C745FC01000000
0160:273C7B   jmp  short 00273C84 ($+7) EB07
0160:273C7D   mov  dword [ebp-0004],00000000 C745FC00000000
0160:273C84   cmp  dword [ebp-0004],0000 837DFC00
0160:273C88   je   00273C9E ($+14) 7414
0160:273C8A   mov  eax,002A3600 B800362A00
0160:273C8F   push eax 50
0160:273C90   push dword [00352BF0] FF35F02B3500
0160:273C96   call 002828E3 ($+ec48) E848EC0000
0160:273C9B   add  esp,0008 83C408
0160:273C9E   call 00282798 ($+eaf5) E8F5EA0000
0160:273CA3   dec  dword [00352C04] FF0D042C3500
0160:273CA9   mov  esp,ebp 89EC
0160:273CAB   pop  ebp 5D
0160:273CAC   pop  edi 5F
0160:273CAD   pop  esi 5E
0160:273CAE   ret C3
0160:273CAF   nop 90
0160:273CB0   push esi 56
0160:273CB1   push edi 57
0160:273CB2   push ebp 55
0160:273CB3   mov  ebp,esp 89E5
0160:273CB5   sub  esp,00000004 81EC04000000
0160:273CBB   inc  dword [00352C04] FF05042C3500
0160:273CC1   cmp  dword [00352BF4],0000 833DF42B350000
0160:273CC8   je   00273CDE ($+14) 7414
0160:273CCA   cmp  dword [00352C04],0001 833D042C350001
0160:273CD1   je   00273CDC ($+9) 7409
0160:273CD3   cmp  dword [00352BF8],0000 833DF82B350000
0160:273CDA   je   00273CDE ($+2) 7402
0160:273CDC   jmp  short 00273CE0 ($+2) EB02
0160:273CDE   jmp  short 00273CF2 ($+12) EB12
0160:273CE0   call 002826A2 ($+e9bd) E8BDE90000
0160:273CE5   test eax,eax 85C0
0160:273CE7   jne  00273CF2 ($+9) 7509
0160:273CE9   call 002726F0 ($-15fe) E802EAFFFF
0160:273CEE   test eax,eax 85C0
0160:273CF0   jne  00273CF4 ($+2) 7502
0160:273CF2   jmp  short 00273CFD ($+9) EB09
0160:273CF4   mov  dword [ebp-0004],00000001 C745FC01000000
0160:273CFB   jmp  short 00273D04 ($+7) EB07
0160:273CFD   mov  dword [ebp-0004],00000000 C745FC00000000
0160:273D04   cmp  dword [ebp-0004],0000 837DFC00
0160:273D08   je   00273D22 ($+18) 7418
0160:273D0A   mov  eax,[ebp+0010] 8B4510
0160:273D0D   push eax 50
0160:273D0E   mov  eax,002A3618 B818362A00
0160:273D13   push eax 50
0160:273D14   push dword [00352BF0] FF35F02B3500
0160:273D1A   call 002828E3 ($+ebc4) E8C4EB0000
0160:273D1F   add  esp,000C 83C40C
0160:273D22   mov  eax,[ebp+0010] 8B4510
0160:273D25   push eax 50
0160:273D26   call 002827BC ($+ea91) E891EA0000
0160:273D2B   add  esp,0004 83C404
0160:273D2E   dec  dword [00352C04] FF0D042C3500
0160:273D34   mov  esp,ebp 89EC
0160:273D36   pop  ebp 5D
0160:273D37   pop  edi 5F
0160:273D38   pop  esi 5E
0160:273D39   ret C3
0160:273D3A   lea  eax,[eax+00000000] 8D8000000000
0160:273D40   push esi 56
0160:273D41   push edi 57
0160:273D42   push ebp 55
0160:273D43   mov  ebp,esp 89E5
0160:273D45   sub  esp,00000004 81EC04000000
0160:273D4B   inc  dword [00352C04] FF05042C3500
0160:273D51   cmp  dword [00352BF4],0000 833DF42B350000
0160:273D58   je   00273D6E ($+14) 7414
0160:273D5A   cmp  dword [00352C04],0001 833D042C350001
0160:273D61   je   00273D6C ($+9) 7409
0160:273D63   cmp  dword [00352BF8],0000 833DF82B350000
0160:273D6A   je   00273D6E ($+2) 7402
0160:273D6C   jmp  short 00273D70 ($+2) EB02
0160:273D6E   jmp  short 00273D82 ($+12) EB12
0160:273D70   call 002826A2 ($+e92d) E82DE90000
0160:273D75   test eax,eax 85C0
0160:273D77   jne  00273D82 ($+9) 7509
0160:273D79   call 002726F0 ($-168e) E872E9FFFF
0160:273D7E   test eax,eax 85C0
0160:273D80   jne  00273D84 ($+2) 7502
0160:273D82   jmp  short 00273D8D ($+9) EB09
0160:273D84   mov  dword [ebp-0004],00000001 C745FC01000000
0160:273D8B   jmp  short 00273D94 ($+7) EB07
0160:273D8D   mov  dword [ebp-0004],00000000 C745FC00000000
0160:273D94   cmp  dword [ebp-0004],0000 837DFC00
0160:273D98   je   00273DAE ($+14) 7414
0160:273D9A   mov  eax,002A362C B82C362A00
0160:273D9F   push eax 50
0160:273DA0   push dword [00352BF0] FF35F02B3500
0160:273DA6   call 002828E3 ($+eb38) E838EB0000
0160:273DAB   add  esp,0008 83C408
0160:273DAE   call 002827EC ($+ea39) E839EA0000
0160:273DB3   dec  dword [00352C04] FF0D042C3500
0160:273DB9   mov  esp,ebp 89EC
0160:273DBB   pop  ebp 5D
0160:273DBC   pop  edi 5F
0160:273DBD   pop  esi 5E
0160:273DBE   ret C3
0160:273DBF   nop 90
0160:273DC0   push esi 56
0160:273DC1   push edi 57
0160:273DC2   push ebp 55
0160:273DC3   mov  ebp,esp 89E5
0160:273DC5   sub  esp,00000004 81EC04000000
0160:273DCB   inc  dword [00352C04] FF05042C3500
0160:273DD1   cmp  dword [00352BF4],0000 833DF42B350000
0160:273DD8   je   00273DEE ($+14) 7414
0160:273DDA   cmp  dword [00352C04],0001 833D042C350001
0160:273DE1   je   00273DEC ($+9) 7409
0160:273DE3   cmp  dword [00352BF8],0000 833DF82B350000
0160:273DEA   je   00273DEE ($+2) 7402
0160:273DEC   jmp  short 00273DF0 ($+2) EB02
0160:273DEE   jmp  short 00273E02 ($+12) EB12
0160:273DF0   call 002826A2 ($+e8ad) E8ADE80000
0160:273DF5   test eax,eax 85C0
0160:273DF7   jne  00273E02 ($+9) 7509
0160:273DF9   call 002726F0 ($-170e) E8F2E8FFFF
0160:273DFE   test eax,eax 85C0
0160:273E00   jne  00273E04 ($+2) 7502
0160:273E02   jmp  short 00273E0D ($+9) EB09
0160:273E04   mov  dword [ebp-0004],00000001 C745FC01000000
0160:273E0B   jmp  short 00273E14 ($+7) EB07
0160:273E0D   mov  dword [ebp-0004],00000000 C745FC00000000
0160:273E14   cmp  dword [ebp-0004],0000 837DFC00
0160:273E18   je   00273E32 ($+18) 7418
0160:273E1A   mov  eax,[ebp+0010] 8B4510
0160:273E1D   push eax 50
0160:273E1E   mov  eax,002A3644 B844362A00
0160:273E23   push eax 50
0160:273E24   push dword [00352BF0] FF35F02B3500
0160:273E2A   call 002828E3 ($+eab4) E8B4EA0000
0160:273E2F   add  esp,000C 83C40C
0160:273E32   mov  eax,[ebp+0010] 8B4510
0160:273E35   push eax 50
0160:273E36   call 0028271D ($+e8e2) E8E2E80000
0160:273E3B   add  esp,0004 83C404
0160:273E3E   dec  dword [00352C04] FF0D042C3500
0160:273E44   mov  esp,ebp 89EC
0160:273E46   pop  ebp 5D
0160:273E47   pop  edi 5F
0160:273E48   pop  esi 5E
0160:273E49   ret C3
0160:273E4A   lea  eax,[eax+00000000] 8D8000000000
0160:273E50   push esi 56
0160:273E51   push edi 57
0160:273E52   push ebp 55
0160:273E53   mov  ebp,esp 89E5
0160:273E55   sub  esp,00000004 81EC04000000
0160:273E5B   inc  dword [00352C04] FF05042C3500
0160:273E61   cmp  dword [00352BF4],0000 833DF42B350000
0160:273E68   je   00273E7E ($+14) 7414
0160:273E6A   cmp  dword [00352C04],0001 833D042C350001
0160:273E71   je   00273E7C ($+9) 7409
0160:273E73   cmp  dword [00352BF8],0000 833DF82B350000
0160:273E7A   je   00273E7E ($+2) 7402
0160:273E7C   jmp  short 00273E80 ($+2) EB02
0160:273E7E   jmp  short 00273E92 ($+12) EB12
0160:273E80   call 002826A2 ($+e81d) E81DE80000
0160:273E85   test eax,eax 85C0
0160:273E87   jne  00273E92 ($+9) 7509
0160:273E89   call 002726F0 ($-179e) E862E8FFFF
0160:273E8E   test eax,eax 85C0
0160:273E90   jne  00273E94 ($+2) 7502
0160:273E92   jmp  short 00273E9D ($+9) EB09
0160:273E94   mov  dword [ebp-0004],00000001 C745FC01000000
0160:273E9B   jmp  short 00273EA4 ($+7) EB07
0160:273E9D   mov  dword [ebp-0004],00000000 C745FC00000000
0160:273EA4   cmp  dword [ebp-0004],0000 837DFC00
0160:273EA8   je   00273EBE ($+14) 7414
0160:273EAA   mov  eax,002A3664 B864362A00
0160:273EAF   push eax 50
0160:273EB0   push dword [00352BF0] FF35F02B3500
0160:273EB6   call 002828E3 ($+ea28) E828EA0000
0160:273EBB   add  esp,0008 83C408
0160:273EBE   call 00282744 ($+e881) E881E80000
0160:273EC3   dec  dword [00352C04] FF0D042C3500
0160:273EC9   mov  esp,ebp 89EC
0160:273ECB   pop  ebp 5D
0160:273ECC   pop  edi 5F
0160:273ECD   pop  esi 5E
0160:273ECE   ret C3
0160:273ECF   nop 90
0160:273ED0   push esi 56
0160:273ED1   push edi 57
0160:273ED2   push ebp 55
0160:273ED3   mov  ebp,esp 89E5
0160:273ED5   sub  esp,00000010 81EC10000000
0160:273EDB   inc  dword [00352C04] FF05042C3500
0160:273EE1   cmp  dword [00352BF4],0000 833DF42B350000
0160:273EE8   je   00273EFE ($+14) 7414
0160:273EEA   cmp  dword [00352C04],0001 833D042C350001
0160:273EF1   je   00273EFC ($+9) 7409
0160:273EF3   cmp  dword [00352BF8],0000 833DF82B350000
0160:273EFA   je   00273EFE ($+2) 7402
0160:273EFC   jmp  short 00273F00 ($+2) EB02
0160:273EFE   jmp  short 00273F12 ($+12) EB12
0160:273F00   call 002826A2 ($+e79d) E89DE70000
0160:273F05   test eax,eax 85C0
0160:273F07   jne  00273F12 ($+9) 7509
0160:273F09   call 002726F0 ($-181e) E8E2E7FFFF
0160:273F0E   test eax,eax 85C0
0160:273F10   jne  00273F14 ($+2) 7502
0160:273F12   jmp  short 00273F1D ($+9) EB09
0160:273F14   mov  dword [ebp-000C],00000001 C745F401000000
0160:273F1B   jmp  short 00273F24 ($+7) EB07
0160:273F1D   mov  dword [ebp-000C],00000000 C745F400000000
0160:273F24   cmp  dword [ebp-000C],0000 837DF400
0160:273F28   je   00273F42 ($+18) 7418
0160:273F2A   mov  eax,[ebp+0010] 8B4510
0160:273F2D   push eax 50
0160:273F2E   mov  eax,002A3680 B880362A00
0160:273F33   push eax 50
0160:273F34   push dword [00352BF0] FF35F02B3500
0160:273F3A   call 002828E3 ($+e9a4) E8A4E90000
0160:273F3F   add  esp,000C 83C40C
0160:273F42   mov  eax,[ebp+0010] 8B4510
0160:273F45   push eax 50
0160:273F46   call 0027FB60 ($+bc15) E815BC0000
0160:273F4B   add  esp,0004 83C404
0160:273F4E   mov  [ebp-0004],eax 8945FC
0160:273F51   cmp  dword [00352BF4],0000 833DF42B350000
0160:273F58   je   00273F6E ($+14) 7414
0160:273F5A   cmp  dword [00352C04],0001 833D042C350001
0160:273F61   je   00273F6C ($+9) 7409
0160:273F63   cmp  dword [00352BF8],0000 833DF82B350000
0160:273F6A   je   00273F6E ($+2) 7402
0160:273F6C   jmp  short 00273F70 ($+2) EB02
0160:273F6E   jmp  short 00273F79 ($+9) EB09
0160:273F70   call 002826A2 ($+e72d) E82DE70000
0160:273F75   test eax,eax 85C0
0160:273F77   je   00273F7E ($+5) 7405
0160:273F79   jmp  00273FF5 ($+77) E977000000
0160:273F7E   mov  dword [ebp-0010],00000000 C745F000000000
0160:273F85   cmp  dword [ebp-0010],000E 837DF00E
0160:273F89   jc   00273F95 ($+a) 720A
0160:273F8B   jmp  short 00273FAB ($+1e) EB1E
0160:273F8D   mov  eax,[ebp-0010] 8B45F0
0160:273F90   inc  dword [ebp-0010] FF45F0
0160:273F93   jmp  short 00273F85 ($-10) EBF0
0160:273F95   mov  eax,002A326C B86C322A00
0160:273F9A   push eax 50
0160:273F9B   push dword [00352BF0] FF35F02B3500
0160:273FA1   call 002828E3 ($+e93d) E83DE90000
0160:273FA6   add  esp,0008 83C408
0160:273FA9   jmp  short 00273F8D ($-1e) EBE2
0160:273FAB   mov  dword [ebp-0010],00000001 C745F001000000
0160:273FB2   mov  eax,[ebp-0010] 8B45F0
0160:273FB5   cmp  eax,[00352C04] 3B05042C3500
0160:273FBB   jc   00273FC7 ($+a) 720A
0160:273FBD   jmp  short 00273FDD ($+1e) EB1E
0160:273FBF   mov  eax,[ebp-0010] 8B45F0
0160:273FC2   inc  dword [ebp-0010] FF45F0
0160:273FC5   jmp  short 00273FB2 ($-15) EBEB
0160:273FC7   mov  eax,002A3270 B870322A00
0160:273FCC   push eax 50
0160:273FCD   push dword [00352BF0] FF35F02B3500
0160:273FD3   call 002828E3 ($+e90b) E80BE90000
0160:273FD8   add  esp,0008 83C408
0160:273FDB   jmp  short 00273FBF ($-1e) EBE2
0160:273FDD   mov  eax,[ebp-0004] 8B45FC
0160:273FE0   push eax 50
0160:273FE1   mov  eax,002A3404 B804342A00
0160:273FE6   push eax 50
0160:273FE7   push dword [00352BF0] FF35F02B3500
0160:273FED   call 002828E3 ($+e8f1) E8F1E80000
0160:273FF2   add  esp,000C 83C40C
0160:273FF5   dec  dword [00352C04] FF0D042C3500
0160:273FFB   mov  eax,[ebp-0004] 8B45FC
0160:273FFE   mov  [ebp-0008],eax 8945F8
0160:274001   mov  eax,[ebp-0008] 8B45F8
0160:274004   mov  esp,ebp 89EC
0160:274006   pop  ebp 5D
0160:274007   pop  edi 5F
0160:274008   pop  esi 5E
0160:274009   ret C3
0160:27400A   lea  eax,[eax+00000000] 8D8000000000
0160:274010   push esi 56
0160:274011   push edi 57
0160:274012   push ebp 55
0160:274013   mov  ebp,esp 89E5
0160:274015   sub  esp,00000010 81EC10000000
0160:27401B   inc  dword [00352C04] FF05042C3500
0160:274021   cmp  dword [00352BF4],0000 833DF42B350000
0160:274028   je   0027403E ($+14) 7414
0160:27402A   cmp  dword [00352C04],0001 833D042C350001
0160:274031   je   0027403C ($+9) 7409
0160:274033   cmp  dword [00352BF8],0000 833DF82B350000
0160:27403A   je   0027403E ($+2) 7402
0160:27403C   jmp  short 00274040 ($+2) EB02
0160:27403E   jmp  short 00274052 ($+12) EB12
0160:274040   call 002826A2 ($+e65d) E85DE60000
0160:274045   test eax,eax 85C0
0160:274047   jne  00274052 ($+9) 7509
0160:274049   call 002726F0 ($-195e) E8A2E6FFFF
0160:27404E   test eax,eax 85C0
0160:274050   jne  00274054 ($+2) 7502
0160:274052   jmp  short 0027405D ($+9) EB09
0160:274054   mov  dword [ebp-000C],00000001 C745F401000000
0160:27405B   jmp  short 00274064 ($+7) EB07
0160:27405D   mov  dword [ebp-000C],00000000 C745F400000000
0160:274064   cmp  dword [ebp-000C],0000 837DF400
0160:274068   je   00274086 ($+1c) 741C
0160:27406A   mov  eax,[ebp+0014] 8B4514
0160:27406D   push eax 50
0160:27406E   mov  eax,[ebp+0010] 8B4510
0160:274071   push eax 50
0160:274072   mov  eax,002A36A0 B8A0362A00
0160:274077   push eax 50
0160:274078   push dword [00352BF0] FF35F02B3500
0160:27407E   call 002828E3 ($+e860) E860E80000
0160:274083   add  esp,0010 83C410
0160:274086   mov  eax,[ebp+0014] 8B4514
0160:274089   push eax 50
0160:27408A   mov  eax,[ebp+0010] 8B4510
0160:27408D   push eax 50
0160:27408E   call 0027F720 ($+b68d) E88DB60000
0160:274093   add  esp,0008 83C408
0160:274096   mov  [ebp-0004],eax 8945FC
0160:274099   cmp  dword [00352BF4],0000 833DF42B350000
0160:2740A0   je   002740B6 ($+14) 7414
0160:2740A2   cmp  dword [00352C04],0001 833D042C350001
0160:2740A9   je   002740B4 ($+9) 7409
0160:2740AB   cmp  dword [00352BF8],0000 833DF82B350000
0160:2740B2   je   002740B6 ($+2) 7402
0160:2740B4   jmp  short 002740B8 ($+2) EB02
0160:2740B6   jmp  short 002740C1 ($+9) EB09
0160:2740B8   call 002826A2 ($+e5e5) E8E5E50000
0160:2740BD   test eax,eax 85C0
0160:2740BF   je   002740C6 ($+5) 7405
0160:2740C1   jmp  0027413D ($+77) E977000000
0160:2740C6   mov  dword [ebp-0010],00000000 C745F000000000
0160:2740CD   cmp  dword [ebp-0010],000E 837DF00E
0160:2740D1   jc   002740DD ($+a) 720A
0160:2740D3   jmp  short 002740F3 ($+1e) EB1E
0160:2740D5   mov  eax,[ebp-0010] 8B45F0
0160:2740D8   inc  dword [ebp-0010] FF45F0
0160:2740DB   jmp  short 002740CD ($-10) EBF0
0160:2740DD   mov  eax,002A326C B86C322A00
0160:2740E2   push eax 50
0160:2740E3   push dword [00352BF0] FF35F02B3500
0160:2740E9   call 002828E3 ($+e7f5) E8F5E70000
0160:2740EE   add  esp,0008 83C408
0160:2740F1   jmp  short 002740D5 ($-1e) EBE2
0160:2740F3   mov  dword [ebp-0010],00000001 C745F001000000
0160:2740FA   mov  eax,[ebp-0010] 8B45F0
0160:2740FD   cmp  eax,[00352C04] 3B05042C3500
0160:274103   jc   0027410F ($+a) 720A
0160:274105   jmp  short 00274125 ($+1e) EB1E
0160:274107   mov  eax,[ebp-0010] 8B45F0
0160:27410A   inc  dword [ebp-0010] FF45F0
0160:27410D   jmp  short 002740FA ($-15) EBEB
0160:27410F   mov  eax,002A3270 B870322A00
0160:274114   push eax 50
0160:274115   push dword [00352BF0] FF35F02B3500
0160:27411B   call 002828E3 ($+e7c3) E8C3E70000
0160:274120   add  esp,0008 83C408
0160:274123   jmp  short 00274107 ($-1e) EBE2
0160:274125   mov  eax,[ebp-0004] 8B45FC
0160:274128   push eax 50
0160:274129   mov  eax,002A3404 B804342A00
0160:27412E   push eax 50
0160:27412F   push dword [00352BF0] FF35F02B3500
0160:274135   call 002828E3 ($+e7a9) E8A9E70000
0160:27413A   add  esp,000C 83C40C
0160:27413D   dec  dword [00352C04] FF0D042C3500
0160:274143   mov  eax,[ebp-0004] 8B45FC
0160:274146   mov  [ebp-0008],eax 8945F8
0160:274149   mov  eax,[ebp-0008] 8B45F8
0160:27414C   mov  esp,ebp 89EC
0160:27414E   pop  ebp 5D
0160:27414F   pop  edi 5F
0160:274150   pop  esi 5E
0160:274151   ret C3
0160:274152   lea  eax,[eax+00000000] 8D8000000000
0160:274158   lea  edx,[edx+00000000] 8D9200000000
0160:27415E   mov  eax,eax 8BC0
0160:274160   push esi 56
0160:274161   push edi 57
0160:274162   push ebp 55
0160:274163   mov  ebp,esp 89E5
0160:274165   sub  esp,00000004 81EC04000000
0160:27416B   inc  dword [00352C04] FF05042C3500
0160:274171   cmp  dword [00352BF4],0000 833DF42B350000
0160:274178   je   0027418E ($+14) 7414
0160:27417A   cmp  dword [00352C04],0001 833D042C350001
0160:274181   je   0027418C ($+9) 7409
0160:274183   cmp  dword [00352BF8],0000 833DF82B350000
0160:27418A   je   0027418E ($+2) 7402
0160:27418C   jmp  short 00274190 ($+2) EB02
0160:27418E   jmp  short 002741A2 ($+12) EB12
0160:274190   call 002826A2 ($+e50d) E80DE50000
0160:274195   test eax,eax 85C0
0160:274197   jne  002741A2 ($+9) 7509
0160:274199   call 002726F0 ($-1aae) E852E5FFFF
0160:27419E   test eax,eax 85C0
0160:2741A0   jne  002741A4 ($+2) 7502
0160:2741A2   jmp  short 002741AD ($+9) EB09
0160:2741A4   mov  dword [ebp-0004],00000001 C745FC01000000
0160:2741AB   jmp  short 002741B4 ($+7) EB07
0160:2741AD   mov  dword [ebp-0004],00000000 C745FC00000000
0160:2741B4   cmp  dword [ebp-0004],0000 837DFC00
0160:2741B8   je   002741D2 ($+18) 7418
0160:2741BA   mov  eax,[ebp+0010] 8B4510
0160:2741BD   push eax 50
0160:2741BE   mov  eax,002A36C0 B8C0362A00
0160:2741C3   push eax 50
0160:2741C4   push dword [00352BF0] FF35F02B3500
0160:2741CA   call 002828E3 ($+e714) E814E70000
0160:2741CF   add  esp,000C 83C40C
0160:2741D2   mov  eax,[ebp+0010] 8B4510
0160:2741D5   push eax 50
0160:2741D6   call 0027FA60 ($+b885) E885B80000
0160:2741DB   add  esp,0004 83C404
0160:2741DE   dec  dword [00352C04] FF0D042C3500
0160:2741E4   mov  esp,ebp 89EC
0160:2741E6   pop  ebp 5D
0160:2741E7   pop  edi 5F
0160:2741E8   pop  esi 5E
0160:2741E9   ret C3
0160:2741EA   lea  eax,[eax+00000000] 8D8000000000
0160:2741F0   push esi 56
0160:2741F1   push edi 57
0160:2741F2   push ebp 55
0160:2741F3   mov  ebp,esp 89E5
0160:2741F5   sub  esp,00000010 81EC10000000
0160:2741FB   inc  dword [00352C04] FF05042C3500
0160:274201   cmp  dword [00352BF4],0000 833DF42B350000
0160:274208   je   0027421E ($+14) 7414
0160:27420A   cmp  dword [00352C04],0001 833D042C350001
0160:274211   je   0027421C ($+9) 7409
0160:274213   cmp  dword [00352BF8],0000 833DF82B350000
0160:27421A   je   0027421E ($+2) 7402
0160:27421C   jmp  short 00274220 ($+2) EB02
0160:27421E   jmp  short 00274232 ($+12) EB12
0160:274220   call 002826A2 ($+e47d) E87DE40000
0160:274225   test eax,eax 85C0
0160:274227   jne  00274232 ($+9) 7509
0160:274229   call 002726F0 ($-1b3e) E8C2E4FFFF
0160:27422E   test eax,eax 85C0
0160:274230   jne  00274234 ($+2) 7502
0160:274232   jmp  short 0027423D ($+9) EB09
0160:274234   mov  dword [ebp-000C],00000001 C745F401000000
0160:27423B   jmp  short 00274244 ($+7) EB07
0160:27423D   mov  dword [ebp-000C],00000000 C745F400000000
0160:274244   cmp  dword [ebp-000C],0000 837DF400
0160:274248   je   00274262 ($+18) 7418
0160:27424A   mov  eax,[ebp+0010] 8B4510
0160:27424D   push eax 50
0160:27424E   mov  eax,002A36DC B8DC362A00
0160:274253   push eax 50
0160:274254   push dword [00352BF0] FF35F02B3500
0160:27425A   call 002828E3 ($+e684) E884E60000
0160:27425F   add  esp,000C 83C40C
0160:274262   mov  eax,[ebp+0010] 8B4510
0160:274265   push eax 50
0160:274266   call 00284720 ($+104b5) E8B5040100
0160:27426B   add  esp,0004 83C404
0160:27426E   mov  [ebp-0004],eax 8945FC
0160:274271   cmp  dword [00352BF4],0000 833DF42B350000
0160:274278   je   0027428E ($+14) 7414
0160:27427A   cmp  dword [00352C04],0001 833D042C350001
0160:274281   je   0027428C ($+9) 7409
0160:274283   cmp  dword [00352BF8],0000 833DF82B350000
0160:27428A   je   0027428E ($+2) 7402
0160:27428C   jmp  short 00274290 ($+2) EB02
0160:27428E   jmp  short 00274299 ($+9) EB09
0160:274290   call 002826A2 ($+e40d) E80DE40000
0160:274295   test eax,eax 85C0
0160:274297   je   0027429E ($+5) 7405
0160:274299   jmp  00274315 ($+77) E977000000
0160:27429E   mov  dword [ebp-0010],00000000 C745F000000000
0160:2742A5   cmp  dword [ebp-0010],000E 837DF00E
0160:2742A9   jc   002742B5 ($+a) 720A
0160:2742AB   jmp  short 002742CB ($+1e) EB1E
0160:2742AD   mov  eax,[ebp-0010] 8B45F0
0160:2742B0   inc  dword [ebp-0010] FF45F0
0160:2742B3   jmp  short 002742A5 ($-10) EBF0
0160:2742B5   mov  eax,002A326C B86C322A00
0160:2742BA   push eax 50
0160:2742BB   push dword [00352BF0] FF35F02B3500
0160:2742C1   call 002828E3 ($+e61d) E81DE60000
0160:2742C6   add  esp,0008 83C408
0160:2742C9   jmp  short 002742AD ($-1e) EBE2
0160:2742CB   mov  dword [ebp-0010],00000001 C745F001000000
0160:2742D2   mov  eax,[ebp-0010] 8B45F0
0160:2742D5   cmp  eax,[00352C04] 3B05042C3500
0160:2742DB   jc   002742E7 ($+a) 720A
0160:2742DD   jmp  short 002742FD ($+1e) EB1E
0160:2742DF   mov  eax,[ebp-0010] 8B45F0
0160:2742E2   inc  dword [ebp-0010] FF45F0
0160:2742E5   jmp  short 002742D2 ($-15) EBEB
0160:2742E7   mov  eax,002A3270 B870322A00
0160:2742EC   push eax 50
0160:2742ED   push dword [00352BF0] FF35F02B3500
0160:2742F3   call 002828E3 ($+e5eb) E8EBE50000
0160:2742F8   add  esp,0008 83C408
0160:2742FB   jmp  short 002742DF ($-1e) EBE2
0160:2742FD   mov  eax,[ebp-0004] 8B45FC
0160:274300   push eax 50
0160:274301   mov  eax,002A33D8 B8D8332A00
0160:274306   push eax 50
0160:274307   push dword [00352BF0] FF35F02B3500
0160:27430D   call 002828E3 ($+e5d1) E8D1E50000
0160:274312   add  esp,000C 83C40C
0160:274315   dec  dword [00352C04] FF0D042C3500
0160:27431B   mov  eax,[ebp-0004] 8B45FC
0160:27431E   mov  [ebp-0008],eax 8945F8
0160:274321   mov  eax,[ebp-0008] 8B45F8
0160:274324   mov  esp,ebp 89EC
0160:274326   pop  ebp 5D
0160:274327   pop  edi 5F
0160:274328   pop  esi 5E
0160:274329   ret C3
0160:27432A   lea  eax,[eax+00000000] 8D8000000000
0160:274330   push esi 56
0160:274331   push edi 57
0160:274332   push ebp 55
0160:274333   mov  ebp,esp 89E5
0160:274335   sub  esp,00000010 81EC10000000
0160:27433B   inc  dword [00352C04] FF05042C3500
0160:274341   cmp  dword [00352BF4],0000 833DF42B350000
0160:274348   je   0027435E ($+14) 7414
0160:27434A   cmp  dword [00352C04],0001 833D042C350001
0160:274351   je   0027435C ($+9) 7409
0160:274353   cmp  dword [00352BF8],0000 833DF82B350000
0160:27435A   je   0027435E ($+2) 7402
0160:27435C   jmp  short 00274360 ($+2) EB02
0160:27435E   jmp  short 00274372 ($+12) EB12
0160:274360   call 002826A2 ($+e33d) E83DE30000
0160:274365   test eax,eax 85C0
0160:274367   jne  00274372 ($+9) 7509
0160:274369   call 002726F0 ($-1c7e) E882E3FFFF
0160:27436E   test eax,eax 85C0
0160:274370   jne  00274374 ($+2) 7502
0160:274372   jmp  short 0027437D ($+9) EB09
0160:274374   mov  dword [ebp-000C],00000001 C745F401000000
0160:27437B   jmp  short 00274384 ($+7) EB07
0160:27437D   mov  dword [ebp-000C],00000000 C745F400000000
0160:274384   cmp  dword [ebp-000C],0000 837DF400
0160:274388   je   002743A6 ($+1c) 741C
0160:27438A   mov  eax,[ebp+0014] 8B4514
0160:27438D   push eax 50
0160:27438E   mov  eax,[ebp+0010] 8B4510
0160:274391   push eax 50
0160:274392   mov  eax,002A36F8 B8F8362A00
0160:274397   push eax 50
0160:274398   push dword [00352BF0] FF35F02B3500
0160:27439E   call 002828E3 ($+e540) E840E50000
0160:2743A3   add  esp,0010 83C410
0160:2743A6   mov  eax,[ebp+0014] 8B4514
0160:2743A9   push eax 50
0160:2743AA   mov  eax,[ebp+0010] 8B4510
0160:2743AD   push eax 50
0160:2743AE   call 00284600 ($+1024d) E84D020100
0160:2743B3   add  esp,0008 83C408
0160:2743B6   mov  [ebp-0004],eax 8945FC
0160:2743B9   cmp  dword [00352BF4],0000 833DF42B350000
0160:2743C0   je   002743D6 ($+14) 7414
0160:2743C2   cmp  dword [00352C04],0001 833D042C350001
0160:2743C9   je   002743D4 ($+9) 7409
0160:2743CB   cmp  dword [00352BF8],0000 833DF82B350000
0160:2743D2   je   002743D6 ($+2) 7402
0160:2743D4   jmp  short 002743D8 ($+2) EB02
0160:2743D6   jmp  short 002743E1 ($+9) EB09
0160:2743D8   call 002826A2 ($+e2c5) E8C5E20000
0160:2743DD   test eax,eax 85C0
0160:2743DF   je   002743E6 ($+5) 7405
0160:2743E1   jmp  0027445D ($+77) E977000000
0160:2743E6   mov  dword [ebp-0010],00000000 C745F000000000
0160:2743ED   cmp  dword [ebp-0010],000E 837DF00E
0160:2743F1   jc   002743FD ($+a) 720A
0160:2743F3   jmp  short 00274413 ($+1e) EB1E
0160:2743F5   mov  eax,[ebp-0010] 8B45F0
0160:2743F8   inc  dword [ebp-0010] FF45F0
0160:2743FB   jmp  short 002743ED ($-10) EBF0
0160:2743FD   mov  eax,002A326C B86C322A00
0160:274402   push eax 50
0160:274403   push dword [00352BF0] FF35F02B3500
0160:274409   call 002828E3 ($+e4d5) E8D5E40000
0160:27440E   add  esp,0008 83C408
0160:274411   jmp  short 002743F5 ($-1e) EBE2
0160:274413   mov  dword [ebp-0010],00000001 C745F001000000
0160:27441A   mov  eax,[ebp-0010] 8B45F0
0160:27441D   cmp  eax,[00352C04] 3B05042C3500
0160:274423   jc   0027442F ($+a) 720A
0160:274425   jmp  short 00274445 ($+1e) EB1E
0160:274427   mov  eax,[ebp-0010] 8B45F0
0160:27442A   inc  dword [ebp-0010] FF45F0
0160:27442D   jmp  short 0027441A ($-15) EBEB
0160:27442F   mov  eax,002A3270 B870322A00
0160:274434   push eax 50
0160:274435   push dword [00352BF0] FF35F02B3500
0160:27443B   call 002828E3 ($+e4a3) E8A3E40000
0160:274440   add  esp,0008 83C408
0160:274443   jmp  short 00274427 ($-1e) EBE2
0160:274445   mov  eax,[ebp-0004] 8B45FC
0160:274448   push eax 50
0160:274449   mov  eax,002A3404 B804342A00
0160:27444E   push eax 50
0160:27444F   push dword [00352BF0] FF35F02B3500
0160:274455   call 002828E3 ($+e489) E889E40000
0160:27445A   add  esp,000C 83C40C
0160:27445D   dec  dword [00352C04] FF0D042C3500
0160:274463   mov  eax,[ebp-0004] 8B45FC
0160:274466   mov  [ebp-0008],eax 8945F8
0160:274469   mov  eax,[ebp-0008] 8B45F8
0160:27446C   mov  esp,ebp 89EC
0160:27446E   pop  ebp 5D
0160:27446F   pop  edi 5F
0160:274470   pop  esi 5E
0160:274471   ret C3
0160:274472   lea  eax,[eax+00000000] 8D8000000000
0160:274478   lea  edx,[edx+00000000] 8D9200000000
0160:27447E   mov  eax,eax 8BC0
0160:274480   push esi 56
0160:274481   push edi 57
0160:274482   push ebp 55
0160:274483   mov  ebp,esp 89E5
0160:274485   sub  esp,00000004 81EC04000000
0160:27448B   inc  dword [00352C04] FF05042C3500
0160:274491   cmp  dword [00352BF4],0000 833DF42B350000
0160:274498   je   002744AE ($+14) 7414
0160:27449A   cmp  dword [00352C04],0001 833D042C350001
0160:2744A1   je   002744AC ($+9) 7409
0160:2744A3   cmp  dword [00352BF8],0000 833DF82B350000
0160:2744AA   je   002744AE ($+2) 7402
0160:2744AC   jmp  short 002744B0 ($+2) EB02
0160:2744AE   jmp  short 002744C2 ($+12) EB12
0160:2744B0   call 002826A2 ($+e1ed) E8EDE10000
0160:2744B5   test eax,eax 85C0
0160:2744B7   jne  002744C2 ($+9) 7509
0160:2744B9   call 002726F0 ($-1dce) E832E2FFFF
0160:2744BE   test eax,eax 85C0
0160:2744C0   jne  002744C4 ($+2) 7502
0160:2744C2   jmp  short 002744CD ($+9) EB09
0160:2744C4   mov  dword [ebp-0004],00000001 C745FC01000000
0160:2744CB   jmp  short 002744D4 ($+7) EB07
0160:2744CD   mov  dword [ebp-0004],00000000 C745FC00000000
0160:2744D4   cmp  dword [ebp-0004],0000 837DFC00
0160:2744D8   je   002744F2 ($+18) 7418
0160:2744DA   mov  eax,[ebp+0010] 8B4510
0160:2744DD   push eax 50
0160:2744DE   mov  eax,002A3720 B820372A00
0160:2744E3   push eax 50
0160:2744E4   push dword [00352BF0] FF35F02B3500
0160:2744EA   call 002828E3 ($+e3f4) E8F4E30000
0160:2744EF   add  esp,000C 83C40C
0160:2744F2   mov  eax,[ebp+0010] 8B4510
0160:2744F5   push eax 50
0160:2744F6   call 002847A0 ($+102a5) E8A5020100
0160:2744FB   add  esp,0004 83C404
0160:2744FE   dec  dword [00352C04] FF0D042C3500
0160:274504   mov  esp,ebp 89EC
0160:274506   pop  ebp 5D
0160:274507   pop  edi 5F
0160:274508   pop  esi 5E
0160:274509   ret C3
0160:27450A   lea  eax,[eax+00000000] 8D8000000000
0160:274510   push esi 56
0160:274511   push edi 57
0160:274512   push ebp 55
0160:274513   mov  ebp,esp 89E5
0160:274515   sub  esp,00000010 81EC10000000
0160:27451B   inc  dword [00352C04] FF05042C3500
0160:274521   cmp  dword [00352BF4],0000 833DF42B350000
0160:274528   je   0027453E ($+14) 7414
0160:27452A   cmp  dword [00352C04],0001 833D042C350001
0160:274531   je   0027453C ($+9) 7409
0160:274533   cmp  dword [00352BF8],0000 833DF82B350000
0160:27453A   je   0027453E ($+2) 7402
0160:27453C   jmp  short 00274540 ($+2) EB02
0160:27453E   jmp  short 00274552 ($+12) EB12
0160:274540   call 002826A2 ($+e15d) E85DE10000
0160:274545   test eax,eax 85C0
0160:274547   jne  00274552 ($+9) 7509
0160:274549   call 002726F0 ($-1e5e) E8A2E1FFFF
0160:27454E   test eax,eax 85C0
0160:274550   jne  00274554 ($+2) 7502
0160:274552   jmp  short 0027455D ($+9) EB09
0160:274554   mov  dword [ebp-000C],00000001 C745F401000000
0160:27455B   jmp  short 00274564 ($+7) EB07
0160:27455D   mov  dword [ebp-000C],00000000 C745F400000000
0160:274564   cmp  dword [ebp-000C],0000 837DF400
0160:274568   je   00274582 ($+18) 7418
0160:27456A   mov  eax,[ebp+0010] 8B4510
0160:27456D   push eax 50
0160:27456E   mov  eax,002A3740 B840372A00
0160:274573   push eax 50
0160:274574   push dword [00352BF0] FF35F02B3500
0160:27457A   call 002828E3 ($+e364) E864E30000
0160:27457F   add  esp,000C 83C40C
0160:274582   mov  eax,[ebp+0010] 8B4510
0160:274585   push eax 50
0160:274586   call 00284820 ($+10295) E895020100
0160:27458B   add  esp,0004 83C404
0160:27458E   mov  [ebp-0004],eax 8945FC
0160:274591   cmp  dword [00352BF4],0000 833DF42B350000
0160:274598   je   002745AE ($+14) 7414
0160:27459A   cmp  dword [00352C04],0001 833D042C350001
0160:2745A1   je   002745AC ($+9) 7409
0160:2745A3   cmp  dword [00352BF8],0000 833DF82B350000
0160:2745AA   je   002745AE ($+2) 7402
0160:2745AC   jmp  short 002745B0 ($+2) EB02
0160:2745AE   jmp  short 002745B9 ($+9) EB09
0160:2745B0   call 002826A2 ($+e0ed) E8EDE00000
0160:2745B5   test eax,eax 85C0
0160:2745B7   je   002745BE ($+5) 7405
0160:2745B9   jmp  00274635 ($+77) E977000000
0160:2745BE   mov  dword [ebp-0010],00000000 C745F000000000
0160:2745C5   cmp  dword [ebp-0010],000E 837DF00E
0160:2745C9   jc   002745D5 ($+a) 720A
0160:2745CB   jmp  short 002745EB ($+1e) EB1E
0160:2745CD   mov  eax,[ebp-0010] 8B45F0
0160:2745D0   inc  dword [ebp-0010] FF45F0
0160:2745D3   jmp  short 002745C5 ($-10) EBF0
0160:2745D5   mov  eax,002A326C B86C322A00
0160:2745DA   push eax 50
0160:2745DB   push dword [00352BF0] FF35F02B3500
0160:2745E1   call 002828E3 ($+e2fd) E8FDE20000
0160:2745E6   add  esp,0008 83C408
0160:2745E9   jmp  short 002745CD ($-1e) EBE2
0160:2745EB   mov  dword [ebp-0010],00000001 C745F001000000
0160:2745F2   mov  eax,[ebp-0010] 8B45F0
0160:2745F5   cmp  eax,[00352C04] 3B05042C3500
0160:2745FB   jc   00274607 ($+a) 720A
0160:2745FD   jmp  short 0027461D ($+1e) EB1E
0160:2745FF   mov  eax,[ebp-0010] 8B45F0
0160:274602   inc  dword [ebp-0010] FF45F0
0160:274605   jmp  short 002745F2 ($-15) EBEB
0160:274607   mov  eax,002A3270 B870322A00
0160:27460C   push eax 50
0160:27460D   push dword [00352BF0] FF35F02B3500
0160:274613   call 002828E3 ($+e2cb) E8CBE20000
0160:274618   add  esp,0008 83C408
0160:27461B   jmp  short 002745FF ($-1e) EBE2
0160:27461D   mov  eax,[ebp-0004] 8B45FC
0160:274620   push eax 50
0160:274621   mov  eax,002A3404 B804342A00
0160:274626   push eax 50
0160:274627   push dword [00352BF0] FF35F02B3500
0160:27462D   call 002828E3 ($+e2b1) E8B1E20000
0160:274632   add  esp,000C 83C40C
0160:274635   dec  dword [00352C04] FF0D042C3500
0160:27463B   mov  eax,[ebp-0004] 8B45FC
0160:27463E   mov  [ebp-0008],eax 8945F8
0160:274641   mov  eax,[ebp-0008] 8B45F8
0160:274644   mov  esp,ebp 89EC
0160:274646   pop  ebp 5D
0160:274647   pop  edi 5F
0160:274648   pop  esi 5E
0160:274649   ret C3
0160:27464A   lea  eax,[eax+00000000] 8D8000000000
0160:274650   push esi 56
0160:274651   push edi 57
0160:274652   push ebp 55
0160:274653   mov  ebp,esp 89E5
0160:274655   sub  esp,00000010 81EC10000000
0160:27465B   inc  dword [00352C04] FF05042C3500
0160:274661   cmp  dword [00352BF4],0000 833DF42B350000
0160:274668   je   0027467E ($+14) 7414
0160:27466A   cmp  dword [00352C04],0001 833D042C350001
0160:274671   je   0027467C ($+9) 7409
0160:274673   cmp  dword [00352BF8],0000 833DF82B350000
0160:27467A   je   0027467E ($+2) 7402
0160:27467C   jmp  short 00274680 ($+2) EB02
0160:27467E   jmp  short 00274692 ($+12) EB12
0160:274680   call 002826A2 ($+e01d) E81DE00000
0160:274685   test eax,eax 85C0
0160:274687   jne  00274692 ($+9) 7509
0160:274689   call 002726F0 ($-1f9e) E862E0FFFF
0160:27468E   test eax,eax 85C0
0160:274690   jne  00274694 ($+2) 7502
0160:274692   jmp  short 0027469D ($+9) EB09
0160:274694   mov  dword [ebp-000C],00000001 C745F401000000
0160:27469B   jmp  short 002746A4 ($+7) EB07
0160:27469D   mov  dword [ebp-000C],00000000 C745F400000000
0160:2746A4   cmp  dword [ebp-000C],0000 837DF400
0160:2746A8   je   002746CA ($+20) 7420
0160:2746AA   mov  eax,[ebp+0018] 8B4518
0160:2746AD   push eax 50
0160:2746AE   mov  eax,[ebp+0014] 8B4514
0160:2746B1   push eax 50
0160:2746B2   mov  eax,[ebp+0010] 8B4510
0160:2746B5   push eax 50
0160:2746B6   mov  eax,002A3764 B864372A00
0160:2746BB   push eax 50
0160:2746BC   push dword [00352BF0] FF35F02B3500
0160:2746C2   call 002828E3 ($+e21c) E81CE20000
0160:2746C7   add  esp,0014 83C414
0160:2746CA   mov  eax,[ebp+0018] 8B4518
0160:2746CD   push eax 50
0160:2746CE   mov  eax,[ebp+0014] 8B4514
0160:2746D1   push eax 50
0160:2746D2   mov  eax,[ebp+0010] 8B4510
0160:2746D5   push eax 50
0160:2746D6   call 00285970 ($+11295) E895120100
0160:2746DB   add  esp,000C 83C40C
0160:2746DE   mov  [ebp-0004],eax 8945FC
0160:2746E1   cmp  dword [00352BF4],0000 833DF42B350000
0160:2746E8   je   002746FE ($+14) 7414
0160:2746EA   cmp  dword [00352C04],0001 833D042C350001
0160:2746F1   je   002746FC ($+9) 7409
0160:2746F3   cmp  dword [00352BF8],0000 833DF82B350000
0160:2746FA   je   002746FE ($+2) 7402
0160:2746FC   jmp  short 00274700 ($+2) EB02
0160:2746FE   jmp  short 00274709 ($+9) EB09
0160:274700   call 002826A2 ($+df9d) E89DDF0000
0160:274705   test eax,eax 85C0
0160:274707   je   0027470E ($+5) 7405
0160:274709   jmp  00274785 ($+77) E977000000
0160:27470E   mov  dword [ebp-0010],00000000 C745F000000000
0160:274715   cmp  dword [ebp-0010],000E 837DF00E
0160:274719   jc   00274725 ($+a) 720A
0160:27471B   jmp  short 0027473B ($+1e) EB1E
0160:27471D   mov  eax,[ebp-0010] 8B45F0
0160:274720   inc  dword [ebp-0010] FF45F0
0160:274723   jmp  short 00274715 ($-10) EBF0
0160:274725   mov  eax,002A326C B86C322A00
0160:27472A   push eax 50
0160:27472B   push dword [00352BF0] FF35F02B3500
0160:274731   call 002828E3 ($+e1ad) E8ADE10000
0160:274736   add  esp,0008 83C408
0160:274739   jmp  short 0027471D ($-1e) EBE2
0160:27473B   mov  dword [ebp-0010],00000001 C745F001000000
0160:274742   mov  eax,[ebp-0010] 8B45F0
0160:274745   cmp  eax,[00352C04] 3B05042C3500
0160:27474B   jc   00274757 ($+a) 720A
0160:27474D   jmp  short 0027476D ($+1e) EB1E
0160:27474F   mov  eax,[ebp-0010] 8B45F0
0160:274752   inc  dword [ebp-0010] FF45F0
0160:274755   jmp  short 00274742 ($-15) EBEB
0160:274757   mov  eax,002A3270 B870322A00
0160:27475C   push eax 50
0160:27475D   push dword [00352BF0] FF35F02B3500
0160:274763   call 002828E3 ($+e17b) E87BE10000
0160:274768   add  esp,0008 83C408
0160:27476B   jmp  short 0027474F ($-1e) EBE2
0160:27476D   mov  eax,[ebp-0004] 8B45FC
0160:274770   push eax 50
0160:274771   mov  eax,002A3404 B804342A00
0160:274776   push eax 50
0160:274777   push dword [00352BF0] FF35F02B3500
0160:27477D   call 002828E3 ($+e161) E861E10000
0160:274782   add  esp,000C 83C40C
0160:274785   dec  dword [00352C04] FF0D042C3500
0160:27478B   mov  eax,[ebp-0004] 8B45FC
0160:27478E   mov  [ebp-0008],eax 8945F8
0160:274791   mov  eax,[ebp-0008] 8B45F8
0160:274794   mov  esp,ebp 89EC
0160:274796   pop  ebp 5D
0160:274797   pop  edi 5F
0160:274798   pop  esi 5E
0160:274799   ret C3
0160:27479A   lea  eax,[eax+00000000] 8D8000000000
0160:2747A0   push esi 56
0160:2747A1   push edi 57
0160:2747A2   push ebp 55
0160:2747A3   mov  ebp,esp 89E5
0160:2747A5   sub  esp,00000004 81EC04000000
0160:2747AB   inc  dword [00352C04] FF05042C3500
0160:2747B1   cmp  dword [00352BF4],0000 833DF42B350000
0160:2747B8   je   002747CE ($+14) 7414
0160:2747BA   cmp  dword [00352C04],0001 833D042C350001
0160:2747C1   je   002747CC ($+9) 7409
0160:2747C3   cmp  dword [00352BF8],0000 833DF82B350000
0160:2747CA   je   002747CE ($+2) 7402
0160:2747CC   jmp  short 002747D0 ($+2) EB02
0160:2747CE   jmp  short 002747E2 ($+12) EB12
0160:2747D0   call 002826A2 ($+decd) E8CDDE0000
0160:2747D5   test eax,eax 85C0
0160:2747D7   jne  002747E2 ($+9) 7509
0160:2747D9   call 002726F0 ($-20ee) E812DFFFFF
0160:2747DE   test eax,eax 85C0
0160:2747E0   jne  002747E4 ($+2) 7502
0160:2747E2   jmp  short 002747ED ($+9) EB09
0160:2747E4   mov  dword [ebp-0004],00000001 C745FC01000000
0160:2747EB   jmp  short 002747F4 ($+7) EB07
0160:2747ED   mov  dword [ebp-0004],00000000 C745FC00000000
0160:2747F4   cmp  dword [ebp-0004],0000 837DFC00
0160:2747F8   je   00274812 ($+18) 7418
0160:2747FA   mov  eax,[ebp+0010] 8B4510
0160:2747FD   push eax 50
0160:2747FE   mov  eax,002A378C B88C372A00
0160:274803   push eax 50
0160:274804   push dword [00352BF0] FF35F02B3500
0160:27480A   call 002828E3 ($+e0d4) E8D4E00000
0160:27480F   add  esp,000C 83C40C
0160:274812   mov  eax,[ebp+0010] 8B4510
0160:274815   push eax 50
0160:274816   call 002848C0 ($+100a5) E8A5000100
0160:27481B   add  esp,0004 83C404
0160:27481E   dec  dword [00352C04] FF0D042C3500
0160:274824   mov  esp,ebp 89EC
0160:274826   pop  ebp 5D
0160:274827   pop  edi 5F
0160:274828   pop  esi 5E
0160:274829   ret C3
0160:27482A   lea  eax,[eax+00000000] 8D8000000000
0160:274830   push esi 56
0160:274831   push edi 57
0160:274832   push ebp 55
0160:274833   mov  ebp,esp 89E5
0160:274835   sub  esp,00000004 81EC04000000
0160:27483B   inc  dword [00352C04] FF05042C3500
0160:274841   cmp  dword [00352BF4],0000 833DF42B350000
0160:274848   je   0027485E ($+14) 7414
0160:27484A   cmp  dword [00352C04],0001 833D042C350001
0160:274851   je   0027485C ($+9) 7409
0160:274853   cmp  dword [00352BF8],0000 833DF82B350000
0160:27485A   je   0027485E ($+2) 7402
0160:27485C   jmp  short 00274860 ($+2) EB02
0160:27485E   jmp  short 00274872 ($+12) EB12
0160:274860   call 002826A2 ($+de3d) E83DDE0000
0160:274865   test eax,eax 85C0
0160:274867   jne  00274872 ($+9) 7509
0160:274869   call 002726F0 ($-217e) E882DEFFFF
0160:27486E   test eax,eax 85C0
0160:274870   jne  00274874 ($+2) 7502
0160:274872   jmp  short 0027487D ($+9) EB09
0160:274874   mov  dword [ebp-0004],00000001 C745FC01000000
0160:27487B   jmp  short 00274884 ($+7) EB07
0160:27487D   mov  dword [ebp-0004],00000000 C745FC00000000
0160:274884   cmp  dword [ebp-0004],0000 837DFC00
0160:274888   je   002748A2 ($+18) 7418
0160:27488A   mov  eax,[ebp+0010] 8B4510
0160:27488D   push eax 50
0160:27488E   mov  eax,002A37B0 B8B0372A00
0160:274893   push eax 50
0160:274894   push dword [00352BF0] FF35F02B3500
0160:27489A   call 002828E3 ($+e044) E844E00000
0160:27489F   add  esp,000C 83C40C
0160:2748A2   mov  eax,[ebp+0010] 8B4510
0160:2748A5   push eax 50
0160:2748A6   call 002848E0 ($+10035) E835000100
0160:2748AB   add  esp,0004 83C404
0160:2748AE   dec  dword [00352C04] FF0D042C3500
0160:2748B4   mov  esp,ebp 89EC
0160:2748B6   pop  ebp 5D
0160:2748B7   pop  edi 5F
0160:2748B8   pop  esi 5E
0160:2748B9   ret C3
0160:2748BA   lea  eax,[eax+00000000] 8D8000000000
0160:2748C0   push esi 56
0160:2748C1   push edi 57
0160:2748C2   push ebp 55
0160:2748C3   mov  ebp,esp 89E5
0160:2748C5   sub  esp,00000010 81EC10000000
0160:2748CB   inc  dword [00352C04] FF05042C3500
0160:2748D1   cmp  dword [00352BF4],0000 833DF42B350000
0160:2748D8   je   002748EE ($+14) 7414
0160:2748DA   cmp  dword [00352C04],0001 833D042C350001
0160:2748E1   je   002748EC ($+9) 7409
0160:2748E3   cmp  dword [00352BF8],0000 833DF82B350000
0160:2748EA   je   002748EE ($+2) 7402
0160:2748EC   jmp  short 002748F0 ($+2) EB02
0160:2748EE   jmp  short 00274902 ($+12) EB12
0160:2748F0   call 002826A2 ($+ddad) E8ADDD0000
0160:2748F5   test eax,eax 85C0
0160:2748F7   jne  00274902 ($+9) 7509
0160:2748F9   call 002726F0 ($-220e) E8F2DDFFFF
0160:2748FE   test eax,eax 85C0
0160:274900   jne  00274904 ($+2) 7502
0160:274902   jmp  short 0027490D ($+9) EB09
0160:274904   mov  dword [ebp-000C],00000001 C745F401000000
0160:27490B   jmp  short 00274914 ($+7) EB07
0160:27490D   mov  dword [ebp-000C],00000000 C745F400000000
0160:274914   cmp  dword [ebp-000C],0000 837DF400
0160:274918   je   0027493A ($+20) 7420
0160:27491A   mov  eax,[ebp+0018] 8B4518
0160:27491D   push eax 50
0160:27491E   mov  eax,[ebp+0014] 8B4514
0160:274921   push eax 50
0160:274922   mov  eax,[ebp+0010] 8B4510
0160:274925   push eax 50
0160:274926   mov  eax,002A37C8 B8C8372A00
0160:27492B   push eax 50
0160:27492C   push dword [00352BF0] FF35F02B3500
0160:274932   call 002828E3 ($+dfac) E8ACDF0000
0160:274937   add  esp,0014 83C414
0160:27493A   mov  eax,[ebp+0018] 8B4518
0160:27493D   push eax 50
0160:27493E   mov  eax,[ebp+0014] 8B4514
0160:274941   push eax 50
0160:274942   mov  eax,[ebp+0010] 8B4510
0160:274945   push eax 50
0160:274946   call 00285B20 ($+111d5) E8D5110100
0160:27494B   add  esp,000C 83C40C
0160:27494E   mov  [ebp-0004],eax 8945FC
0160:274951   cmp  dword [00352BF4],0000 833DF42B350000
0160:274958   je   0027496E ($+14) 7414
0160:27495A   cmp  dword [00352C04],0001 833D042C350001
0160:274961   je   0027496C ($+9) 7409
0160:274963   cmp  dword [00352BF8],0000 833DF82B350000
0160:27496A   je   0027496E ($+2) 7402
0160:27496C   jmp  short 00274970 ($+2) EB02
0160:27496E   jmp  short 00274979 ($+9) EB09
0160:274970   call 002826A2 ($+dd2d) E82DDD0000
0160:274975   test eax,eax 85C0
0160:274977   je   0027497E ($+5) 7405
0160:274979   jmp  002749F5 ($+77) E977000000
0160:27497E   mov  dword [ebp-0010],00000000 C745F000000000
0160:274985   cmp  dword [ebp-0010],000E 837DF00E
0160:274989   jc   00274995 ($+a) 720A
0160:27498B   jmp  short 002749AB ($+1e) EB1E
0160:27498D   mov  eax,[ebp-0010] 8B45F0
0160:274990   inc  dword [ebp-0010] FF45F0
0160:274993   jmp  short 00274985 ($-10) EBF0
0160:274995   mov  eax,002A326C B86C322A00
0160:27499A   push eax 50
0160:27499B   push dword [00352BF0] FF35F02B3500
0160:2749A1   call 002828E3 ($+df3d) E83DDF0000
0160:2749A6   add  esp,0008 83C408
0160:2749A9   jmp  short 0027498D ($-1e) EBE2
0160:2749AB   mov  dword [ebp-0010],00000001 C745F001000000
0160:2749B2   mov  eax,[ebp-0010] 8B45F0
0160:2749B5   cmp  eax,[00352C04] 3B05042C3500
0160:2749BB   jc   002749C7 ($+a) 720A
0160:2749BD   jmp  short 002749DD ($+1e) EB1E
0160:2749BF   mov  eax,[ebp-0010] 8B45F0
0160:2749C2   inc  dword [ebp-0010] FF45F0
0160:2749C5   jmp  short 002749B2 ($-15) EBEB
0160:2749C7   mov  eax,002A3270 B870322A00
0160:2749CC   push eax 50
0160:2749CD   push dword [00352BF0] FF35F02B3500
0160:2749D3   call 002828E3 ($+df0b) E80BDF0000
0160:2749D8   add  esp,0008 83C408
0160:2749DB   jmp  short 002749BF ($-1e) EBE2
0160:2749DD   mov  eax,[ebp-0004] 8B45FC
0160:2749E0   push eax 50
0160:2749E1   mov  eax,002A33D8 B8D8332A00
0160:2749E6   push eax 50
0160:2749E7   push dword [00352BF0] FF35F02B3500
0160:2749ED   call 002828E3 ($+def1) E8F1DE0000
0160:2749F2   add  esp,000C 83C40C
0160:2749F5   dec  dword [00352C04] FF0D042C3500
0160:2749FB   mov  eax,[ebp-0004] 8B45FC
0160:2749FE   mov  [ebp-0008],eax 8945F8
0160:274A01   mov  eax,[ebp-0008] 8B45F8
0160:274A04   mov  esp,ebp 89EC
0160:274A06   pop  ebp 5D
0160:274A07   pop  edi 5F
0160:274A08   pop  esi 5E
0160:274A09   ret C3
0160:274A0A   lea  eax,[eax+00000000] 8D8000000000
0160:274A10   push esi 56
0160:274A11   push edi 57
0160:274A12   push ebp 55
0160:274A13   mov  ebp,esp 89E5
0160:274A15   sub  esp,00000004 81EC04000000
0160:274A1B   inc  dword [00352C04] FF05042C3500
0160:274A21   cmp  dword [00352BF4],0000 833DF42B350000
